
sprints.elf:     file format elf32-avr

Sections:
Idx Name          Size      VMA       LMA       File off  Algn
  0 .text         00000d5e  00000000  00000000  00000094  2**1
                  CONTENTS, ALLOC, LOAD, READONLY, CODE
  1 .data         0000000a  00800060  00000d5e  00000df2  2**0
                  CONTENTS, ALLOC, LOAD, DATA
  2 .bss          00000012  0080006a  0080006a  00000dfc  2**0
                  ALLOC
  3 .comment      00000030  00000000  00000000  00000dfc  2**0
                  CONTENTS, READONLY
  4 .note.gnu.avr.deviceinfo 0000003c  00000000  00000000  00000e2c  2**2
                  CONTENTS, READONLY
  5 .debug_aranges 00000188  00000000  00000000  00000e68  2**0
                  CONTENTS, READONLY, DEBUGGING
  6 .debug_info   0000199d  00000000  00000000  00000ff0  2**0
                  CONTENTS, READONLY, DEBUGGING
  7 .debug_abbrev 00000a08  00000000  00000000  0000298d  2**0
                  CONTENTS, READONLY, DEBUGGING
  8 .debug_line   00000eac  00000000  00000000  00003395  2**0
                  CONTENTS, READONLY, DEBUGGING
  9 .debug_frame  0000034c  00000000  00000000  00004244  2**2
                  CONTENTS, READONLY, DEBUGGING
 10 .debug_str    0000086a  00000000  00000000  00004590  2**0
                  CONTENTS, READONLY, DEBUGGING
 11 .debug_loc    00000c86  00000000  00000000  00004dfa  2**0
                  CONTENTS, READONLY, DEBUGGING
 12 .debug_ranges 00000118  00000000  00000000  00005a80  2**0
                  CONTENTS, READONLY, DEBUGGING

Disassembly of section .text:

00000000 <__vectors>:
   0:	0c 94 2a 00 	jmp	0x54	; 0x54 <__ctors_end>
   4:	0c 94 cb 03 	jmp	0x796	; 0x796 <__vector_1>
   8:	0c 94 f2 03 	jmp	0x7e4	; 0x7e4 <__vector_2>
   c:	0c 94 19 04 	jmp	0x832	; 0x832 <__vector_3>
  10:	0c 94 47 00 	jmp	0x8e	; 0x8e <__bad_interrupt>
  14:	0c 94 47 00 	jmp	0x8e	; 0x8e <__bad_interrupt>
  18:	0c 94 47 00 	jmp	0x8e	; 0x8e <__bad_interrupt>
  1c:	0c 94 47 00 	jmp	0x8e	; 0x8e <__bad_interrupt>
  20:	0c 94 47 00 	jmp	0x8e	; 0x8e <__bad_interrupt>
  24:	0c 94 47 00 	jmp	0x8e	; 0x8e <__bad_interrupt>
  28:	0c 94 47 00 	jmp	0x8e	; 0x8e <__bad_interrupt>
  2c:	0c 94 47 00 	jmp	0x8e	; 0x8e <__bad_interrupt>
  30:	0c 94 47 00 	jmp	0x8e	; 0x8e <__bad_interrupt>
  34:	0c 94 47 00 	jmp	0x8e	; 0x8e <__bad_interrupt>
  38:	0c 94 47 00 	jmp	0x8e	; 0x8e <__bad_interrupt>
  3c:	0c 94 47 00 	jmp	0x8e	; 0x8e <__bad_interrupt>
  40:	0c 94 47 00 	jmp	0x8e	; 0x8e <__bad_interrupt>
  44:	0c 94 47 00 	jmp	0x8e	; 0x8e <__bad_interrupt>
  48:	0c 94 47 00 	jmp	0x8e	; 0x8e <__bad_interrupt>
  4c:	0c 94 47 00 	jmp	0x8e	; 0x8e <__bad_interrupt>
  50:	0c 94 47 00 	jmp	0x8e	; 0x8e <__bad_interrupt>

00000054 <__ctors_end>:
  54:	11 24       	eor	r1, r1
  56:	1f be       	out	0x3f, r1	; 63
  58:	cf e5       	ldi	r28, 0x5F	; 95
  5a:	d8 e0       	ldi	r29, 0x08	; 8
  5c:	de bf       	out	0x3e, r29	; 62
  5e:	cd bf       	out	0x3d, r28	; 61

00000060 <__do_copy_data>:
  60:	10 e0       	ldi	r17, 0x00	; 0
  62:	a0 e6       	ldi	r26, 0x60	; 96
  64:	b0 e0       	ldi	r27, 0x00	; 0
  66:	ee e5       	ldi	r30, 0x5E	; 94
  68:	fd e0       	ldi	r31, 0x0D	; 13
  6a:	02 c0       	rjmp	.+4      	; 0x70 <__do_copy_data+0x10>
  6c:	05 90       	lpm	r0, Z+
  6e:	0d 92       	st	X+, r0
  70:	aa 36       	cpi	r26, 0x6A	; 106
  72:	b1 07       	cpc	r27, r17
  74:	d9 f7       	brne	.-10     	; 0x6c <__do_copy_data+0xc>

00000076 <__do_clear_bss>:
  76:	20 e0       	ldi	r18, 0x00	; 0
  78:	aa e6       	ldi	r26, 0x6A	; 106
  7a:	b0 e0       	ldi	r27, 0x00	; 0
  7c:	01 c0       	rjmp	.+2      	; 0x80 <.do_clear_bss_start>

0000007e <.do_clear_bss_loop>:
  7e:	1d 92       	st	X+, r1

00000080 <.do_clear_bss_start>:
  80:	ac 37       	cpi	r26, 0x7C	; 124
  82:	b2 07       	cpc	r27, r18
  84:	e1 f7       	brne	.-8      	; 0x7e <.do_clear_bss_loop>
  86:	0e 94 7f 02 	call	0x4fe	; 0x4fe <main>
  8a:	0c 94 ad 06 	jmp	0xd5a	; 0xd5a <_exit>

0000008e <__bad_interrupt>:
  8e:	0c 94 00 00 	jmp	0	; 0x0 <__vectors>

00000092 <set_led_flag>:
uint8_t u8_leds_flag = 0, u8_mode_flag=0 ,u8_int_error_enu_state_t=0 ,u8_error_enu_state_t2=0 ;
float delay_on=100,delay_off=900;

static void set_led_flag(){
	
	if(u8_leds_flag <7){
  92:	80 91 6d 00 	lds	r24, 0x006D	; 0x80006d <u8_leds_flag>
  96:	87 30       	cpi	r24, 0x07	; 7
  98:	20 f4       	brcc	.+8      	; 0xa2 <set_led_flag+0x10>
		
		u8_leds_flag++;
  9a:	8f 5f       	subi	r24, 0xFF	; 255
  9c:	80 93 6d 00 	sts	0x006D, r24	; 0x80006d <u8_leds_flag>
  a0:	08 95       	ret
		
	}else{
		
		u8_leds_flag = 0;
  a2:	10 92 6d 00 	sts	0x006D, r1	; 0x80006d <u8_leds_flag>
  a6:	08 95       	ret

000000a8 <set_delay>:
	
}

static void set_delay(){
	
	u8_mode_flag++;
  a8:	80 91 6c 00 	lds	r24, 0x006C	; 0x80006c <u8_mode_flag>
  ac:	8f 5f       	subi	r24, 0xFF	; 255
  ae:	80 93 6c 00 	sts	0x006C, r24	; 0x80006c <u8_mode_flag>
	switch(u8_mode_flag){
  b2:	82 30       	cpi	r24, 0x02	; 2
  b4:	19 f1       	breq	.+70     	; 0xfc <set_delay+0x54>
  b6:	18 f4       	brcc	.+6      	; 0xbe <set_delay+0x16>
  b8:	81 30       	cpi	r24, 0x01	; 1
  ba:	39 f0       	breq	.+14     	; 0xca <set_delay+0x22>
  bc:	66 c0       	rjmp	.+204    	; 0x18a <set_delay+0xe2>
  be:	83 30       	cpi	r24, 0x03	; 3
  c0:	b1 f1       	breq	.+108    	; 0x12e <set_delay+0x86>
  c2:	84 30       	cpi	r24, 0x04	; 4
  c4:	09 f4       	brne	.+2      	; 0xc8 <set_delay+0x20>
  c6:	48 c0       	rjmp	.+144    	; 0x158 <set_delay+0xb0>
  c8:	60 c0       	rjmp	.+192    	; 0x18a <set_delay+0xe2>
	
		
	case 1 :
	delay_on=200;
  ca:	80 e0       	ldi	r24, 0x00	; 0
  cc:	90 e0       	ldi	r25, 0x00	; 0
  ce:	a8 e4       	ldi	r26, 0x48	; 72
  d0:	b3 e4       	ldi	r27, 0x43	; 67
  d2:	80 93 64 00 	sts	0x0064, r24	; 0x800064 <delay_on>
  d6:	90 93 65 00 	sts	0x0065, r25	; 0x800065 <delay_on+0x1>
  da:	a0 93 66 00 	sts	0x0066, r26	; 0x800066 <delay_on+0x2>
  de:	b0 93 67 00 	sts	0x0067, r27	; 0x800067 <delay_on+0x3>
	delay_off=800;
  e2:	80 e0       	ldi	r24, 0x00	; 0
  e4:	90 e0       	ldi	r25, 0x00	; 0
  e6:	a8 e4       	ldi	r26, 0x48	; 72
  e8:	b4 e4       	ldi	r27, 0x44	; 68
  ea:	80 93 60 00 	sts	0x0060, r24	; 0x800060 <__DATA_REGION_ORIGIN__>
  ee:	90 93 61 00 	sts	0x0061, r25	; 0x800061 <__DATA_REGION_ORIGIN__+0x1>
  f2:	a0 93 62 00 	sts	0x0062, r26	; 0x800062 <__DATA_REGION_ORIGIN__+0x2>
  f6:	b0 93 63 00 	sts	0x0063, r27	; 0x800063 <__DATA_REGION_ORIGIN__+0x3>
	break;
  fa:	08 95       	ret
	
	case 2 :
	delay_on=300;
  fc:	80 e0       	ldi	r24, 0x00	; 0
  fe:	90 e0       	ldi	r25, 0x00	; 0
 100:	a6 e9       	ldi	r26, 0x96	; 150
 102:	b3 e4       	ldi	r27, 0x43	; 67
 104:	80 93 64 00 	sts	0x0064, r24	; 0x800064 <delay_on>
 108:	90 93 65 00 	sts	0x0065, r25	; 0x800065 <delay_on+0x1>
 10c:	a0 93 66 00 	sts	0x0066, r26	; 0x800066 <delay_on+0x2>
 110:	b0 93 67 00 	sts	0x0067, r27	; 0x800067 <delay_on+0x3>
	delay_off=700;
 114:	80 e0       	ldi	r24, 0x00	; 0
 116:	90 e0       	ldi	r25, 0x00	; 0
 118:	af e2       	ldi	r26, 0x2F	; 47
 11a:	b4 e4       	ldi	r27, 0x44	; 68
 11c:	80 93 60 00 	sts	0x0060, r24	; 0x800060 <__DATA_REGION_ORIGIN__>
 120:	90 93 61 00 	sts	0x0061, r25	; 0x800061 <__DATA_REGION_ORIGIN__+0x1>
 124:	a0 93 62 00 	sts	0x0062, r26	; 0x800062 <__DATA_REGION_ORIGIN__+0x2>
 128:	b0 93 63 00 	sts	0x0063, r27	; 0x800063 <__DATA_REGION_ORIGIN__+0x3>
	break;
 12c:	08 95       	ret
	
	case 3 :
	delay_on=500;
 12e:	80 e0       	ldi	r24, 0x00	; 0
 130:	90 e0       	ldi	r25, 0x00	; 0
 132:	aa ef       	ldi	r26, 0xFA	; 250
 134:	b3 e4       	ldi	r27, 0x43	; 67
 136:	80 93 64 00 	sts	0x0064, r24	; 0x800064 <delay_on>
 13a:	90 93 65 00 	sts	0x0065, r25	; 0x800065 <delay_on+0x1>
 13e:	a0 93 66 00 	sts	0x0066, r26	; 0x800066 <delay_on+0x2>
 142:	b0 93 67 00 	sts	0x0067, r27	; 0x800067 <delay_on+0x3>
	delay_off=500;
 146:	80 93 60 00 	sts	0x0060, r24	; 0x800060 <__DATA_REGION_ORIGIN__>
 14a:	90 93 61 00 	sts	0x0061, r25	; 0x800061 <__DATA_REGION_ORIGIN__+0x1>
 14e:	a0 93 62 00 	sts	0x0062, r26	; 0x800062 <__DATA_REGION_ORIGIN__+0x2>
 152:	b0 93 63 00 	sts	0x0063, r27	; 0x800063 <__DATA_REGION_ORIGIN__+0x3>
	break;
 156:	08 95       	ret
	
	case 4 :
	delay_on=800;
 158:	80 e0       	ldi	r24, 0x00	; 0
 15a:	90 e0       	ldi	r25, 0x00	; 0
 15c:	a8 e4       	ldi	r26, 0x48	; 72
 15e:	b4 e4       	ldi	r27, 0x44	; 68
 160:	80 93 64 00 	sts	0x0064, r24	; 0x800064 <delay_on>
 164:	90 93 65 00 	sts	0x0065, r25	; 0x800065 <delay_on+0x1>
 168:	a0 93 66 00 	sts	0x0066, r26	; 0x800066 <delay_on+0x2>
 16c:	b0 93 67 00 	sts	0x0067, r27	; 0x800067 <delay_on+0x3>
	delay_off=200;
 170:	80 e0       	ldi	r24, 0x00	; 0
 172:	90 e0       	ldi	r25, 0x00	; 0
 174:	a8 e4       	ldi	r26, 0x48	; 72
 176:	b3 e4       	ldi	r27, 0x43	; 67
 178:	80 93 60 00 	sts	0x0060, r24	; 0x800060 <__DATA_REGION_ORIGIN__>
 17c:	90 93 61 00 	sts	0x0061, r25	; 0x800061 <__DATA_REGION_ORIGIN__+0x1>
 180:	a0 93 62 00 	sts	0x0062, r26	; 0x800062 <__DATA_REGION_ORIGIN__+0x2>
 184:	b0 93 63 00 	sts	0x0063, r27	; 0x800063 <__DATA_REGION_ORIGIN__+0x3>
	break;
 188:	08 95       	ret
	
	
	default:
		u8_mode_flag = 0 ;
 18a:	10 92 6c 00 	sts	0x006C, r1	; 0x80006c <u8_mode_flag>
		delay_on=100;
 18e:	80 e0       	ldi	r24, 0x00	; 0
 190:	90 e0       	ldi	r25, 0x00	; 0
 192:	a8 ec       	ldi	r26, 0xC8	; 200
 194:	b2 e4       	ldi	r27, 0x42	; 66
 196:	80 93 64 00 	sts	0x0064, r24	; 0x800064 <delay_on>
 19a:	90 93 65 00 	sts	0x0065, r25	; 0x800065 <delay_on+0x1>
 19e:	a0 93 66 00 	sts	0x0066, r26	; 0x800066 <delay_on+0x2>
 1a2:	b0 93 67 00 	sts	0x0067, r27	; 0x800067 <delay_on+0x3>
		delay_off=900;
 1a6:	80 e0       	ldi	r24, 0x00	; 0
 1a8:	90 e0       	ldi	r25, 0x00	; 0
 1aa:	a1 e6       	ldi	r26, 0x61	; 97
 1ac:	b4 e4       	ldi	r27, 0x44	; 68
 1ae:	80 93 60 00 	sts	0x0060, r24	; 0x800060 <__DATA_REGION_ORIGIN__>
 1b2:	90 93 61 00 	sts	0x0061, r25	; 0x800061 <__DATA_REGION_ORIGIN__+0x1>
 1b6:	a0 93 62 00 	sts	0x0062, r26	; 0x800062 <__DATA_REGION_ORIGIN__+0x2>
 1ba:	b0 93 63 00 	sts	0x0063, r27	; 0x800063 <__DATA_REGION_ORIGIN__+0x3>
 1be:	08 95       	ret

000001c0 <app_init>:
	
	
}
void app_init(void){
	
	 button_init(BUTTON_INT0_PORT,BUTTON_INT0_PIN);
 1c0:	62 e0       	ldi	r22, 0x02	; 2
 1c2:	83 e0       	ldi	r24, 0x03	; 3
 1c4:	0e 94 6f 02 	call	0x4de	; 0x4de <button_init>
	 button_init(BUTTON_INT1_PORT,BUTTON_INT1_PIN);
 1c8:	63 e0       	ldi	r22, 0x03	; 3
 1ca:	83 e0       	ldi	r24, 0x03	; 3
 1cc:	0e 94 6f 02 	call	0x4de	; 0x4de <button_init>

	 led_init(PORT_B,PIN_0);
 1d0:	60 e0       	ldi	r22, 0x00	; 0
 1d2:	81 e0       	ldi	r24, 0x01	; 1
 1d4:	0e 94 73 02 	call	0x4e6	; 0x4e6 <led_init>
	 led_init(PORT_B,PIN_1);
 1d8:	61 e0       	ldi	r22, 0x01	; 1
 1da:	81 e0       	ldi	r24, 0x01	; 1
 1dc:	0e 94 73 02 	call	0x4e6	; 0x4e6 <led_init>
	 led_init(PORT_B,PIN_2);
 1e0:	62 e0       	ldi	r22, 0x02	; 2
 1e2:	81 e0       	ldi	r24, 0x01	; 1
 1e4:	0e 94 73 02 	call	0x4e6	; 0x4e6 <led_init>
	 led_init(PORT_B,PIN_3);
 1e8:	63 e0       	ldi	r22, 0x03	; 3
 1ea:	81 e0       	ldi	r24, 0x01	; 1
 1ec:	0e 94 73 02 	call	0x4e6	; 0x4e6 <led_init>
	 
	 // INTERRUPT
	 SEI;
 1f0:	8f b7       	in	r24, 0x3f	; 63
 1f2:	80 68       	ori	r24, 0x80	; 128
 1f4:	8f bf       	out	0x3f, r24	; 63
	u8_int_error_enu_state_t= ext_int_init(); 
 1f6:	0e 94 a2 03 	call	0x744	; 0x744 <ext_int_init>
 1fa:	80 93 6b 00 	sts	0x006B, r24	; 0x80006b <u8_int_error_enu_state_t>
	u8_error_enu_state_t2=int0_set_callback(set_led_flag);
 1fe:	89 e4       	ldi	r24, 0x49	; 73
 200:	90 e0       	ldi	r25, 0x00	; 0
 202:	0e 94 b7 03 	call	0x76e	; 0x76e <int0_set_callback>
 206:	80 93 6a 00 	sts	0x006A, r24	; 0x80006a <__data_end>
	int1_set_callback(set_delay);
 20a:	84 e5       	ldi	r24, 0x54	; 84
 20c:	90 e0       	ldi	r25, 0x00	; 0
 20e:	0e 94 c6 03 	call	0x78c	; 0x78c <int1_set_callback>
 212:	08 95       	ret

00000214 <app_start>:
}


void app_start(){
	if (u8_leds_flag == 0){
 214:	80 91 6d 00 	lds	r24, 0x006D	; 0x80006d <u8_leds_flag>
 218:	81 11       	cpse	r24, r1
 21a:	11 c0       	rjmp	.+34     	; 0x23e <app_start+0x2a>
		led_off(PORT_B,PIN_0);
 21c:	60 e0       	ldi	r22, 0x00	; 0
 21e:	81 e0       	ldi	r24, 0x01	; 1
 220:	0e 94 7b 02 	call	0x4f6	; 0x4f6 <led_off>
		led_off(PORT_B,PIN_1);
 224:	61 e0       	ldi	r22, 0x01	; 1
 226:	81 e0       	ldi	r24, 0x01	; 1
 228:	0e 94 7b 02 	call	0x4f6	; 0x4f6 <led_off>
		led_off(PORT_B,PIN_2);
 22c:	62 e0       	ldi	r22, 0x02	; 2
 22e:	81 e0       	ldi	r24, 0x01	; 1
 230:	0e 94 7b 02 	call	0x4f6	; 0x4f6 <led_off>
		led_off(PORT_B,PIN_3);	
 234:	63 e0       	ldi	r22, 0x03	; 3
 236:	81 e0       	ldi	r24, 0x01	; 1
 238:	0e 94 7b 02 	call	0x4f6	; 0x4f6 <led_off>
 23c:	08 95       	ret

	}
	else if(u8_leds_flag == 1){
 23e:	81 30       	cpi	r24, 0x01	; 1
 240:	41 f5       	brne	.+80     	; 0x292 <app_start+0x7e>
		led_on(PORT_B,PIN_0);
 242:	60 e0       	ldi	r22, 0x00	; 0
 244:	0e 94 77 02 	call	0x4ee	; 0x4ee <led_on>
		timer_0_delay_ms(delay_on);
 248:	60 91 64 00 	lds	r22, 0x0064	; 0x800064 <delay_on>
 24c:	70 91 65 00 	lds	r23, 0x0065	; 0x800065 <delay_on+0x1>
 250:	80 91 66 00 	lds	r24, 0x0066	; 0x800066 <delay_on+0x2>
 254:	90 91 67 00 	lds	r25, 0x0067	; 0x800067 <delay_on+0x3>
 258:	0e 94 1f 05 	call	0xa3e	; 0xa3e <timer_0_delay_ms>
		led_off(PORT_B,PIN_0);
 25c:	60 e0       	ldi	r22, 0x00	; 0
 25e:	81 e0       	ldi	r24, 0x01	; 1
 260:	0e 94 7b 02 	call	0x4f6	; 0x4f6 <led_off>
		timer_0_delay_ms(delay_off);
 264:	60 91 60 00 	lds	r22, 0x0060	; 0x800060 <__DATA_REGION_ORIGIN__>
 268:	70 91 61 00 	lds	r23, 0x0061	; 0x800061 <__DATA_REGION_ORIGIN__+0x1>
 26c:	80 91 62 00 	lds	r24, 0x0062	; 0x800062 <__DATA_REGION_ORIGIN__+0x2>
 270:	90 91 63 00 	lds	r25, 0x0063	; 0x800063 <__DATA_REGION_ORIGIN__+0x3>
 274:	0e 94 1f 05 	call	0xa3e	; 0xa3e <timer_0_delay_ms>
		led_off(PORT_B,PIN_1);
 278:	61 e0       	ldi	r22, 0x01	; 1
 27a:	81 e0       	ldi	r24, 0x01	; 1
 27c:	0e 94 7b 02 	call	0x4f6	; 0x4f6 <led_off>
		led_off(PORT_B,PIN_2);
 280:	62 e0       	ldi	r22, 0x02	; 2
 282:	81 e0       	ldi	r24, 0x01	; 1
 284:	0e 94 7b 02 	call	0x4f6	; 0x4f6 <led_off>
		led_off(PORT_B,PIN_3);
 288:	63 e0       	ldi	r22, 0x03	; 3
 28a:	81 e0       	ldi	r24, 0x01	; 1
 28c:	0e 94 7b 02 	call	0x4f6	; 0x4f6 <led_off>
 290:	08 95       	ret
		
		
	}else if (u8_leds_flag == 2){
 292:	82 30       	cpi	r24, 0x02	; 2
 294:	69 f5       	brne	.+90     	; 0x2f0 <app_start+0xdc>
		led_on(PORT_B,PIN_0);
 296:	60 e0       	ldi	r22, 0x00	; 0
 298:	81 e0       	ldi	r24, 0x01	; 1
 29a:	0e 94 77 02 	call	0x4ee	; 0x4ee <led_on>
		led_on(PORT_B,PIN_1);
 29e:	61 e0       	ldi	r22, 0x01	; 1
 2a0:	81 e0       	ldi	r24, 0x01	; 1
 2a2:	0e 94 77 02 	call	0x4ee	; 0x4ee <led_on>
		timer_0_delay_ms(delay_on);
 2a6:	60 91 64 00 	lds	r22, 0x0064	; 0x800064 <delay_on>
 2aa:	70 91 65 00 	lds	r23, 0x0065	; 0x800065 <delay_on+0x1>
 2ae:	80 91 66 00 	lds	r24, 0x0066	; 0x800066 <delay_on+0x2>
 2b2:	90 91 67 00 	lds	r25, 0x0067	; 0x800067 <delay_on+0x3>
 2b6:	0e 94 1f 05 	call	0xa3e	; 0xa3e <timer_0_delay_ms>
		led_off(PORT_B,PIN_0);
 2ba:	60 e0       	ldi	r22, 0x00	; 0
 2bc:	81 e0       	ldi	r24, 0x01	; 1
 2be:	0e 94 7b 02 	call	0x4f6	; 0x4f6 <led_off>
		led_off(PORT_B,PIN_1);
 2c2:	61 e0       	ldi	r22, 0x01	; 1
 2c4:	81 e0       	ldi	r24, 0x01	; 1
 2c6:	0e 94 7b 02 	call	0x4f6	; 0x4f6 <led_off>
		timer_0_delay_ms(delay_off);
 2ca:	60 91 60 00 	lds	r22, 0x0060	; 0x800060 <__DATA_REGION_ORIGIN__>
 2ce:	70 91 61 00 	lds	r23, 0x0061	; 0x800061 <__DATA_REGION_ORIGIN__+0x1>
 2d2:	80 91 62 00 	lds	r24, 0x0062	; 0x800062 <__DATA_REGION_ORIGIN__+0x2>
 2d6:	90 91 63 00 	lds	r25, 0x0063	; 0x800063 <__DATA_REGION_ORIGIN__+0x3>
 2da:	0e 94 1f 05 	call	0xa3e	; 0xa3e <timer_0_delay_ms>
		
		led_off(PORT_B,PIN_2);
 2de:	62 e0       	ldi	r22, 0x02	; 2
 2e0:	81 e0       	ldi	r24, 0x01	; 1
 2e2:	0e 94 7b 02 	call	0x4f6	; 0x4f6 <led_off>
		led_off(PORT_B,PIN_3);
 2e6:	63 e0       	ldi	r22, 0x03	; 3
 2e8:	81 e0       	ldi	r24, 0x01	; 1
 2ea:	0e 94 7b 02 	call	0x4f6	; 0x4f6 <led_off>
 2ee:	08 95       	ret
		
		
	}else if (u8_leds_flag == 3){
 2f0:	83 30       	cpi	r24, 0x03	; 3
 2f2:	89 f5       	brne	.+98     	; 0x356 <app_start+0x142>
		led_on(PORT_B,PIN_0);
 2f4:	60 e0       	ldi	r22, 0x00	; 0
 2f6:	81 e0       	ldi	r24, 0x01	; 1
 2f8:	0e 94 77 02 	call	0x4ee	; 0x4ee <led_on>
		led_on(PORT_B,PIN_1);
 2fc:	61 e0       	ldi	r22, 0x01	; 1
 2fe:	81 e0       	ldi	r24, 0x01	; 1
 300:	0e 94 77 02 	call	0x4ee	; 0x4ee <led_on>
		led_on(PORT_B,PIN_2);
 304:	62 e0       	ldi	r22, 0x02	; 2
 306:	81 e0       	ldi	r24, 0x01	; 1
 308:	0e 94 77 02 	call	0x4ee	; 0x4ee <led_on>
		timer_0_delay_ms(delay_on);
 30c:	60 91 64 00 	lds	r22, 0x0064	; 0x800064 <delay_on>
 310:	70 91 65 00 	lds	r23, 0x0065	; 0x800065 <delay_on+0x1>
 314:	80 91 66 00 	lds	r24, 0x0066	; 0x800066 <delay_on+0x2>
 318:	90 91 67 00 	lds	r25, 0x0067	; 0x800067 <delay_on+0x3>
 31c:	0e 94 1f 05 	call	0xa3e	; 0xa3e <timer_0_delay_ms>
		led_off(PORT_B,PIN_0);
 320:	60 e0       	ldi	r22, 0x00	; 0
 322:	81 e0       	ldi	r24, 0x01	; 1
 324:	0e 94 7b 02 	call	0x4f6	; 0x4f6 <led_off>
		led_off(PORT_B,PIN_1);
 328:	61 e0       	ldi	r22, 0x01	; 1
 32a:	81 e0       	ldi	r24, 0x01	; 1
 32c:	0e 94 7b 02 	call	0x4f6	; 0x4f6 <led_off>
		led_off(PORT_B,PIN_2);
 330:	62 e0       	ldi	r22, 0x02	; 2
 332:	81 e0       	ldi	r24, 0x01	; 1
 334:	0e 94 7b 02 	call	0x4f6	; 0x4f6 <led_off>
		timer_0_delay_ms(delay_off);
 338:	60 91 60 00 	lds	r22, 0x0060	; 0x800060 <__DATA_REGION_ORIGIN__>
 33c:	70 91 61 00 	lds	r23, 0x0061	; 0x800061 <__DATA_REGION_ORIGIN__+0x1>
 340:	80 91 62 00 	lds	r24, 0x0062	; 0x800062 <__DATA_REGION_ORIGIN__+0x2>
 344:	90 91 63 00 	lds	r25, 0x0063	; 0x800063 <__DATA_REGION_ORIGIN__+0x3>
 348:	0e 94 1f 05 	call	0xa3e	; 0xa3e <timer_0_delay_ms>
		led_off(PORT_B,PIN_3);
 34c:	63 e0       	ldi	r22, 0x03	; 3
 34e:	81 e0       	ldi	r24, 0x01	; 1
 350:	0e 94 7b 02 	call	0x4f6	; 0x4f6 <led_off>
 354:	08 95       	ret
		
		
	}else if (u8_leds_flag == 4){
 356:	84 30       	cpi	r24, 0x04	; 4
 358:	a9 f5       	brne	.+106    	; 0x3c4 <app_start+0x1b0>
		led_on(PORT_B,PIN_0);
 35a:	60 e0       	ldi	r22, 0x00	; 0
 35c:	81 e0       	ldi	r24, 0x01	; 1
 35e:	0e 94 77 02 	call	0x4ee	; 0x4ee <led_on>
		led_on(PORT_B,PIN_1);
 362:	61 e0       	ldi	r22, 0x01	; 1
 364:	81 e0       	ldi	r24, 0x01	; 1
 366:	0e 94 77 02 	call	0x4ee	; 0x4ee <led_on>
		led_on(PORT_B,PIN_2);
 36a:	62 e0       	ldi	r22, 0x02	; 2
 36c:	81 e0       	ldi	r24, 0x01	; 1
 36e:	0e 94 77 02 	call	0x4ee	; 0x4ee <led_on>
		led_on(PORT_B,PIN_3);
 372:	63 e0       	ldi	r22, 0x03	; 3
 374:	81 e0       	ldi	r24, 0x01	; 1
 376:	0e 94 77 02 	call	0x4ee	; 0x4ee <led_on>
		timer_0_delay_ms(delay_on);
 37a:	60 91 64 00 	lds	r22, 0x0064	; 0x800064 <delay_on>
 37e:	70 91 65 00 	lds	r23, 0x0065	; 0x800065 <delay_on+0x1>
 382:	80 91 66 00 	lds	r24, 0x0066	; 0x800066 <delay_on+0x2>
 386:	90 91 67 00 	lds	r25, 0x0067	; 0x800067 <delay_on+0x3>
 38a:	0e 94 1f 05 	call	0xa3e	; 0xa3e <timer_0_delay_ms>
		led_off(PORT_B,PIN_0);
 38e:	60 e0       	ldi	r22, 0x00	; 0
 390:	81 e0       	ldi	r24, 0x01	; 1
 392:	0e 94 7b 02 	call	0x4f6	; 0x4f6 <led_off>
		led_off(PORT_B,PIN_1);
 396:	61 e0       	ldi	r22, 0x01	; 1
 398:	81 e0       	ldi	r24, 0x01	; 1
 39a:	0e 94 7b 02 	call	0x4f6	; 0x4f6 <led_off>
		led_off(PORT_B,PIN_2);
 39e:	62 e0       	ldi	r22, 0x02	; 2
 3a0:	81 e0       	ldi	r24, 0x01	; 1
 3a2:	0e 94 7b 02 	call	0x4f6	; 0x4f6 <led_off>
		led_off(PORT_B,PIN_3);
 3a6:	63 e0       	ldi	r22, 0x03	; 3
 3a8:	81 e0       	ldi	r24, 0x01	; 1
 3aa:	0e 94 7b 02 	call	0x4f6	; 0x4f6 <led_off>
		timer_0_delay_ms(delay_off);
 3ae:	60 91 60 00 	lds	r22, 0x0060	; 0x800060 <__DATA_REGION_ORIGIN__>
 3b2:	70 91 61 00 	lds	r23, 0x0061	; 0x800061 <__DATA_REGION_ORIGIN__+0x1>
 3b6:	80 91 62 00 	lds	r24, 0x0062	; 0x800062 <__DATA_REGION_ORIGIN__+0x2>
 3ba:	90 91 63 00 	lds	r25, 0x0063	; 0x800063 <__DATA_REGION_ORIGIN__+0x3>
 3be:	0e 94 1f 05 	call	0xa3e	; 0xa3e <timer_0_delay_ms>
 3c2:	08 95       	ret
	}else if (u8_leds_flag == 5){
 3c4:	85 30       	cpi	r24, 0x05	; 5
 3c6:	89 f5       	brne	.+98     	; 0x42a <__EEPROM_REGION_LENGTH__+0x2a>
		led_off(PORT_B,PIN_0);
 3c8:	60 e0       	ldi	r22, 0x00	; 0
 3ca:	81 e0       	ldi	r24, 0x01	; 1
 3cc:	0e 94 7b 02 	call	0x4f6	; 0x4f6 <led_off>
		
		led_on(PORT_B,PIN_1);
 3d0:	61 e0       	ldi	r22, 0x01	; 1
 3d2:	81 e0       	ldi	r24, 0x01	; 1
 3d4:	0e 94 77 02 	call	0x4ee	; 0x4ee <led_on>
		led_on(PORT_B,PIN_2);
 3d8:	62 e0       	ldi	r22, 0x02	; 2
 3da:	81 e0       	ldi	r24, 0x01	; 1
 3dc:	0e 94 77 02 	call	0x4ee	; 0x4ee <led_on>
		led_on(PORT_B,PIN_3);
 3e0:	63 e0       	ldi	r22, 0x03	; 3
 3e2:	81 e0       	ldi	r24, 0x01	; 1
 3e4:	0e 94 77 02 	call	0x4ee	; 0x4ee <led_on>
		timer_0_delay_ms(delay_on);
 3e8:	60 91 64 00 	lds	r22, 0x0064	; 0x800064 <delay_on>
 3ec:	70 91 65 00 	lds	r23, 0x0065	; 0x800065 <delay_on+0x1>
 3f0:	80 91 66 00 	lds	r24, 0x0066	; 0x800066 <delay_on+0x2>
 3f4:	90 91 67 00 	lds	r25, 0x0067	; 0x800067 <delay_on+0x3>
 3f8:	0e 94 1f 05 	call	0xa3e	; 0xa3e <timer_0_delay_ms>
		led_off(PORT_B,PIN_1);
 3fc:	61 e0       	ldi	r22, 0x01	; 1
 3fe:	81 e0       	ldi	r24, 0x01	; 1
 400:	0e 94 7b 02 	call	0x4f6	; 0x4f6 <led_off>
		led_off(PORT_B,PIN_2);
 404:	62 e0       	ldi	r22, 0x02	; 2
 406:	81 e0       	ldi	r24, 0x01	; 1
 408:	0e 94 7b 02 	call	0x4f6	; 0x4f6 <led_off>
		led_off(PORT_B,PIN_3);
 40c:	63 e0       	ldi	r22, 0x03	; 3
 40e:	81 e0       	ldi	r24, 0x01	; 1
 410:	0e 94 7b 02 	call	0x4f6	; 0x4f6 <led_off>
		timer_0_delay_ms(delay_off);
 414:	60 91 60 00 	lds	r22, 0x0060	; 0x800060 <__DATA_REGION_ORIGIN__>
 418:	70 91 61 00 	lds	r23, 0x0061	; 0x800061 <__DATA_REGION_ORIGIN__+0x1>
 41c:	80 91 62 00 	lds	r24, 0x0062	; 0x800062 <__DATA_REGION_ORIGIN__+0x2>
 420:	90 91 63 00 	lds	r25, 0x0063	; 0x800063 <__DATA_REGION_ORIGIN__+0x3>
 424:	0e 94 1f 05 	call	0xa3e	; 0xa3e <timer_0_delay_ms>
 428:	08 95       	ret
		
	}else if (u8_leds_flag == 6){
 42a:	86 30       	cpi	r24, 0x06	; 6
 42c:	69 f5       	brne	.+90     	; 0x488 <__EEPROM_REGION_LENGTH__+0x88>
		led_off(PORT_B,PIN_0);
 42e:	60 e0       	ldi	r22, 0x00	; 0
 430:	81 e0       	ldi	r24, 0x01	; 1
 432:	0e 94 7b 02 	call	0x4f6	; 0x4f6 <led_off>
		led_off(PORT_B,PIN_1);
 436:	61 e0       	ldi	r22, 0x01	; 1
 438:	81 e0       	ldi	r24, 0x01	; 1
 43a:	0e 94 7b 02 	call	0x4f6	; 0x4f6 <led_off>
		
		led_on(PORT_B,PIN_2);
 43e:	62 e0       	ldi	r22, 0x02	; 2
 440:	81 e0       	ldi	r24, 0x01	; 1
 442:	0e 94 77 02 	call	0x4ee	; 0x4ee <led_on>
		led_on(PORT_B,PIN_3);
 446:	63 e0       	ldi	r22, 0x03	; 3
 448:	81 e0       	ldi	r24, 0x01	; 1
 44a:	0e 94 77 02 	call	0x4ee	; 0x4ee <led_on>
		timer_0_delay_ms(delay_on);
 44e:	60 91 64 00 	lds	r22, 0x0064	; 0x800064 <delay_on>
 452:	70 91 65 00 	lds	r23, 0x0065	; 0x800065 <delay_on+0x1>
 456:	80 91 66 00 	lds	r24, 0x0066	; 0x800066 <delay_on+0x2>
 45a:	90 91 67 00 	lds	r25, 0x0067	; 0x800067 <delay_on+0x3>
 45e:	0e 94 1f 05 	call	0xa3e	; 0xa3e <timer_0_delay_ms>
		led_off(PORT_B,PIN_2);
 462:	62 e0       	ldi	r22, 0x02	; 2
 464:	81 e0       	ldi	r24, 0x01	; 1
 466:	0e 94 7b 02 	call	0x4f6	; 0x4f6 <led_off>
		led_off(PORT_B,PIN_3);
 46a:	63 e0       	ldi	r22, 0x03	; 3
 46c:	81 e0       	ldi	r24, 0x01	; 1
 46e:	0e 94 7b 02 	call	0x4f6	; 0x4f6 <led_off>
		timer_0_delay_ms(delay_off);
 472:	60 91 60 00 	lds	r22, 0x0060	; 0x800060 <__DATA_REGION_ORIGIN__>
 476:	70 91 61 00 	lds	r23, 0x0061	; 0x800061 <__DATA_REGION_ORIGIN__+0x1>
 47a:	80 91 62 00 	lds	r24, 0x0062	; 0x800062 <__DATA_REGION_ORIGIN__+0x2>
 47e:	90 91 63 00 	lds	r25, 0x0063	; 0x800063 <__DATA_REGION_ORIGIN__+0x3>
 482:	0e 94 1f 05 	call	0xa3e	; 0xa3e <timer_0_delay_ms>
 486:	08 95       	ret
		
	}
	else if (u8_leds_flag == 7){
 488:	87 30       	cpi	r24, 0x07	; 7
 48a:	41 f5       	brne	.+80     	; 0x4dc <__EEPROM_REGION_LENGTH__+0xdc>
		led_off(PORT_B,PIN_0);
 48c:	60 e0       	ldi	r22, 0x00	; 0
 48e:	81 e0       	ldi	r24, 0x01	; 1
 490:	0e 94 7b 02 	call	0x4f6	; 0x4f6 <led_off>
		led_off(PORT_B,PIN_1);
 494:	61 e0       	ldi	r22, 0x01	; 1
 496:	81 e0       	ldi	r24, 0x01	; 1
 498:	0e 94 7b 02 	call	0x4f6	; 0x4f6 <led_off>
		led_off(PORT_B,PIN_2);
 49c:	62 e0       	ldi	r22, 0x02	; 2
 49e:	81 e0       	ldi	r24, 0x01	; 1
 4a0:	0e 94 7b 02 	call	0x4f6	; 0x4f6 <led_off>
		led_on(PORT_B,PIN_3);
 4a4:	63 e0       	ldi	r22, 0x03	; 3
 4a6:	81 e0       	ldi	r24, 0x01	; 1
 4a8:	0e 94 77 02 	call	0x4ee	; 0x4ee <led_on>
		timer_0_delay_ms(delay_on);
 4ac:	60 91 64 00 	lds	r22, 0x0064	; 0x800064 <delay_on>
 4b0:	70 91 65 00 	lds	r23, 0x0065	; 0x800065 <delay_on+0x1>
 4b4:	80 91 66 00 	lds	r24, 0x0066	; 0x800066 <delay_on+0x2>
 4b8:	90 91 67 00 	lds	r25, 0x0067	; 0x800067 <delay_on+0x3>
 4bc:	0e 94 1f 05 	call	0xa3e	; 0xa3e <timer_0_delay_ms>
		led_off(PORT_B,PIN_3);
 4c0:	63 e0       	ldi	r22, 0x03	; 3
 4c2:	81 e0       	ldi	r24, 0x01	; 1
 4c4:	0e 94 7b 02 	call	0x4f6	; 0x4f6 <led_off>
		timer_0_delay_ms(delay_off);
 4c8:	60 91 60 00 	lds	r22, 0x0060	; 0x800060 <__DATA_REGION_ORIGIN__>
 4cc:	70 91 61 00 	lds	r23, 0x0061	; 0x800061 <__DATA_REGION_ORIGIN__+0x1>
 4d0:	80 91 62 00 	lds	r24, 0x0062	; 0x800062 <__DATA_REGION_ORIGIN__+0x2>
 4d4:	90 91 63 00 	lds	r25, 0x0063	; 0x800063 <__DATA_REGION_ORIGIN__+0x3>
 4d8:	0e 94 1f 05 	call	0xa3e	; 0xa3e <timer_0_delay_ms>
 4dc:	08 95       	ret

000004de <button_init>:
 */ 
#include "button.h"

enu_dio_error_t button_init(enu_ports_t enu_port ,enu_pins_t enu_pin)
{
	enu_dio_error_t loc_errorStatus = dio_init(enu_port,enu_pin,INPUT);
 4de:	40 e0       	ldi	r20, 0x00	; 0
 4e0:	0e 94 84 02 	call	0x508	; 0x508 <dio_init>
	return loc_errorStatus;
}
 4e4:	08 95       	ret

000004e6 <led_init>:
 */ 
#include "led.h"

enu_dio_error_t led_init(enu_ports_t enu_port , enu_pins_t enu_pin)
{
	enu_dio_error_t loc_errorStatus = dio_init(enu_port,enu_pin,OUTPUT);
 4e6:	41 e0       	ldi	r20, 0x01	; 1
 4e8:	0e 94 84 02 	call	0x508	; 0x508 <dio_init>
	return loc_errorStatus;
}
 4ec:	08 95       	ret

000004ee <led_on>:

enu_dio_error_t led_on (enu_ports_t enu_port , enu_pins_t enu_pin)
{
	enu_dio_error_t loc_errorStatus = dio_write(enu_port,enu_pin,HIGH);
 4ee:	41 e0       	ldi	r20, 0x01	; 1
 4f0:	0e 94 13 03 	call	0x626	; 0x626 <dio_write>
	return loc_errorStatus;
}
 4f4:	08 95       	ret

000004f6 <led_off>:

enu_dio_error_t led_off(enu_ports_t enu_port , enu_pins_t enu_pin)
{
	enu_dio_error_t loc_errorStatus = dio_write(enu_port,enu_pin,LOW);	
 4f6:	40 e0       	ldi	r20, 0x00	; 0
 4f8:	0e 94 13 03 	call	0x626	; 0x626 <dio_write>
	return loc_errorStatus;
}
 4fc:	08 95       	ret

000004fe <main>:
 

 
int main(void)
{
	app_init();
 4fe:	0e 94 e0 00 	call	0x1c0	; 0x1c0 <app_init>
	
	while (1){
		app_start();
 502:	0e 94 0a 01 	call	0x214	; 0x214 <app_start>
 506:	fd cf       	rjmp	.-6      	; 0x502 <main+0x4>

00000508 <dio_init>:
#include "dio.h"

enu_dio_error_t dio_init(enu_ports_t enu_port, enu_pins_t enu_pin , enu_pin_direction_t enu_direction){
	enu_dio_error_t loc_ErrorStatus = Dio_Ok;
	
	if(enu_pin<PIN_0 || enu_pin>PIN_7){
 508:	68 30       	cpi	r22, 0x08	; 8
 50a:	08 f0       	brcs	.+2      	; 0x50e <dio_init+0x6>
 50c:	80 c0       	rjmp	.+256    	; 0x60e <dio_init+0x106>
		loc_ErrorStatus = Dio_PinError ;
	}
	else{	
		switch (enu_port)
 50e:	81 30       	cpi	r24, 0x01	; 1
 510:	31 f1       	breq	.+76     	; 0x55e <dio_init+0x56>
 512:	38 f0       	brcs	.+14     	; 0x522 <dio_init+0x1a>
 514:	82 30       	cpi	r24, 0x02	; 2
 516:	09 f4       	brne	.+2      	; 0x51a <dio_init+0x12>
 518:	40 c0       	rjmp	.+128    	; 0x59a <dio_init+0x92>
 51a:	83 30       	cpi	r24, 0x03	; 3
 51c:	09 f4       	brne	.+2      	; 0x520 <dio_init+0x18>
 51e:	5a c0       	rjmp	.+180    	; 0x5d4 <dio_init+0xcc>
 520:	78 c0       	rjmp	.+240    	; 0x612 <dio_init+0x10a>
		{

			case PORT_A :
					if (enu_direction == INPUT)
 522:	41 11       	cpse	r20, r1
 524:	0d c0       	rjmp	.+26     	; 0x540 <dio_init+0x38>
					{
						CLR_BIT(DDRA,enu_pin);
 526:	2a b3       	in	r18, 0x1a	; 26
 528:	81 e0       	ldi	r24, 0x01	; 1
 52a:	90 e0       	ldi	r25, 0x00	; 0
 52c:	02 c0       	rjmp	.+4      	; 0x532 <dio_init+0x2a>
 52e:	88 0f       	add	r24, r24
 530:	99 1f       	adc	r25, r25
 532:	6a 95       	dec	r22
 534:	e2 f7       	brpl	.-8      	; 0x52e <dio_init+0x26>
 536:	80 95       	com	r24
 538:	82 23       	and	r24, r18
 53a:	8a bb       	out	0x1a, r24	; 26
 */ 

#include "dio.h"

enu_dio_error_t dio_init(enu_ports_t enu_port, enu_pins_t enu_pin , enu_pin_direction_t enu_direction){
	enu_dio_error_t loc_ErrorStatus = Dio_Ok;
 53c:	80 e0       	ldi	r24, 0x00	; 0
 53e:	08 95       	ret

			case PORT_A :
					if (enu_direction == INPUT)
					{
						CLR_BIT(DDRA,enu_pin);
					}else if ( enu_direction == OUTPUT){
 540:	41 30       	cpi	r20, 0x01	; 1
 542:	09 f0       	breq	.+2      	; 0x546 <dio_init+0x3e>
 544:	68 c0       	rjmp	.+208    	; 0x616 <dio_init+0x10e>
						SET_BIT(DDRA,enu_pin);
 546:	2a b3       	in	r18, 0x1a	; 26
 548:	81 e0       	ldi	r24, 0x01	; 1
 54a:	90 e0       	ldi	r25, 0x00	; 0
 54c:	02 c0       	rjmp	.+4      	; 0x552 <dio_init+0x4a>
 54e:	88 0f       	add	r24, r24
 550:	99 1f       	adc	r25, r25
 552:	6a 95       	dec	r22
 554:	e2 f7       	brpl	.-8      	; 0x54e <dio_init+0x46>
 556:	82 2b       	or	r24, r18
 558:	8a bb       	out	0x1a, r24	; 26
 */ 

#include "dio.h"

enu_dio_error_t dio_init(enu_ports_t enu_port, enu_pins_t enu_pin , enu_pin_direction_t enu_direction){
	enu_dio_error_t loc_ErrorStatus = Dio_Ok;
 55a:	80 e0       	ldi	r24, 0x00	; 0
 55c:	08 95       	ret
					}
					break;
		
		
			case PORT_B :
					if (enu_direction == INPUT)
 55e:	41 11       	cpse	r20, r1
 560:	0d c0       	rjmp	.+26     	; 0x57c <dio_init+0x74>
					{
						CLR_BIT(DDRB,enu_pin);
 562:	27 b3       	in	r18, 0x17	; 23
 564:	81 e0       	ldi	r24, 0x01	; 1
 566:	90 e0       	ldi	r25, 0x00	; 0
 568:	02 c0       	rjmp	.+4      	; 0x56e <dio_init+0x66>
 56a:	88 0f       	add	r24, r24
 56c:	99 1f       	adc	r25, r25
 56e:	6a 95       	dec	r22
 570:	e2 f7       	brpl	.-8      	; 0x56a <dio_init+0x62>
 572:	80 95       	com	r24
 574:	82 23       	and	r24, r18
 576:	87 bb       	out	0x17, r24	; 23
 */ 

#include "dio.h"

enu_dio_error_t dio_init(enu_ports_t enu_port, enu_pins_t enu_pin , enu_pin_direction_t enu_direction){
	enu_dio_error_t loc_ErrorStatus = Dio_Ok;
 578:	80 e0       	ldi	r24, 0x00	; 0
 57a:	08 95       	ret
		
			case PORT_B :
					if (enu_direction == INPUT)
					{
						CLR_BIT(DDRB,enu_pin);
					}else if ( enu_direction == OUTPUT){
 57c:	41 30       	cpi	r20, 0x01	; 1
 57e:	09 f0       	breq	.+2      	; 0x582 <dio_init+0x7a>
 580:	4c c0       	rjmp	.+152    	; 0x61a <dio_init+0x112>
						SET_BIT(DDRB,enu_pin);
 582:	27 b3       	in	r18, 0x17	; 23
 584:	81 e0       	ldi	r24, 0x01	; 1
 586:	90 e0       	ldi	r25, 0x00	; 0
 588:	02 c0       	rjmp	.+4      	; 0x58e <dio_init+0x86>
 58a:	88 0f       	add	r24, r24
 58c:	99 1f       	adc	r25, r25
 58e:	6a 95       	dec	r22
 590:	e2 f7       	brpl	.-8      	; 0x58a <dio_init+0x82>
 592:	82 2b       	or	r24, r18
 594:	87 bb       	out	0x17, r24	; 23
 */ 

#include "dio.h"

enu_dio_error_t dio_init(enu_ports_t enu_port, enu_pins_t enu_pin , enu_pin_direction_t enu_direction){
	enu_dio_error_t loc_ErrorStatus = Dio_Ok;
 596:	80 e0       	ldi	r24, 0x00	; 0
 598:	08 95       	ret
					break;
		
		
		
			case PORT_C :
					if (enu_direction == INPUT)
 59a:	41 11       	cpse	r20, r1
 59c:	0d c0       	rjmp	.+26     	; 0x5b8 <dio_init+0xb0>
					{
						CLR_BIT(DDRC,enu_pin);
 59e:	24 b3       	in	r18, 0x14	; 20
 5a0:	81 e0       	ldi	r24, 0x01	; 1
 5a2:	90 e0       	ldi	r25, 0x00	; 0
 5a4:	02 c0       	rjmp	.+4      	; 0x5aa <dio_init+0xa2>
 5a6:	88 0f       	add	r24, r24
 5a8:	99 1f       	adc	r25, r25
 5aa:	6a 95       	dec	r22
 5ac:	e2 f7       	brpl	.-8      	; 0x5a6 <dio_init+0x9e>
 5ae:	80 95       	com	r24
 5b0:	82 23       	and	r24, r18
 5b2:	84 bb       	out	0x14, r24	; 20
 */ 

#include "dio.h"

enu_dio_error_t dio_init(enu_ports_t enu_port, enu_pins_t enu_pin , enu_pin_direction_t enu_direction){
	enu_dio_error_t loc_ErrorStatus = Dio_Ok;
 5b4:	80 e0       	ldi	r24, 0x00	; 0
 5b6:	08 95       	ret
		
			case PORT_C :
					if (enu_direction == INPUT)
					{
						CLR_BIT(DDRC,enu_pin);
					}else if ( enu_direction == OUTPUT){
 5b8:	41 30       	cpi	r20, 0x01	; 1
 5ba:	89 f5       	brne	.+98     	; 0x61e <dio_init+0x116>
						SET_BIT(DDRC,enu_pin);
 5bc:	24 b3       	in	r18, 0x14	; 20
 5be:	81 e0       	ldi	r24, 0x01	; 1
 5c0:	90 e0       	ldi	r25, 0x00	; 0
 5c2:	02 c0       	rjmp	.+4      	; 0x5c8 <dio_init+0xc0>
 5c4:	88 0f       	add	r24, r24
 5c6:	99 1f       	adc	r25, r25
 5c8:	6a 95       	dec	r22
 5ca:	e2 f7       	brpl	.-8      	; 0x5c4 <dio_init+0xbc>
 5cc:	82 2b       	or	r24, r18
 5ce:	84 bb       	out	0x14, r24	; 20
 */ 

#include "dio.h"

enu_dio_error_t dio_init(enu_ports_t enu_port, enu_pins_t enu_pin , enu_pin_direction_t enu_direction){
	enu_dio_error_t loc_ErrorStatus = Dio_Ok;
 5d0:	80 e0       	ldi	r24, 0x00	; 0
 5d2:	08 95       	ret
					break;
		
		
		
			case PORT_D :
					if (enu_direction == INPUT)
 5d4:	41 11       	cpse	r20, r1
 5d6:	0d c0       	rjmp	.+26     	; 0x5f2 <dio_init+0xea>
					{
						CLR_BIT(DDRD,enu_pin);
 5d8:	21 b3       	in	r18, 0x11	; 17
 5da:	81 e0       	ldi	r24, 0x01	; 1
 5dc:	90 e0       	ldi	r25, 0x00	; 0
 5de:	02 c0       	rjmp	.+4      	; 0x5e4 <dio_init+0xdc>
 5e0:	88 0f       	add	r24, r24
 5e2:	99 1f       	adc	r25, r25
 5e4:	6a 95       	dec	r22
 5e6:	e2 f7       	brpl	.-8      	; 0x5e0 <dio_init+0xd8>
 5e8:	80 95       	com	r24
 5ea:	82 23       	and	r24, r18
 5ec:	81 bb       	out	0x11, r24	; 17
 */ 

#include "dio.h"

enu_dio_error_t dio_init(enu_ports_t enu_port, enu_pins_t enu_pin , enu_pin_direction_t enu_direction){
	enu_dio_error_t loc_ErrorStatus = Dio_Ok;
 5ee:	80 e0       	ldi	r24, 0x00	; 0
 5f0:	08 95       	ret
		
			case PORT_D :
					if (enu_direction == INPUT)
					{
						CLR_BIT(DDRD,enu_pin);
					}else if ( enu_direction == OUTPUT){
 5f2:	41 30       	cpi	r20, 0x01	; 1
 5f4:	b1 f4       	brne	.+44     	; 0x622 <dio_init+0x11a>
						SET_BIT(DDRD,enu_pin);
 5f6:	21 b3       	in	r18, 0x11	; 17
 5f8:	81 e0       	ldi	r24, 0x01	; 1
 5fa:	90 e0       	ldi	r25, 0x00	; 0
 5fc:	02 c0       	rjmp	.+4      	; 0x602 <dio_init+0xfa>
 5fe:	88 0f       	add	r24, r24
 600:	99 1f       	adc	r25, r25
 602:	6a 95       	dec	r22
 604:	e2 f7       	brpl	.-8      	; 0x5fe <dio_init+0xf6>
 606:	82 2b       	or	r24, r18
 608:	81 bb       	out	0x11, r24	; 17
 */ 

#include "dio.h"

enu_dio_error_t dio_init(enu_ports_t enu_port, enu_pins_t enu_pin , enu_pin_direction_t enu_direction){
	enu_dio_error_t loc_ErrorStatus = Dio_Ok;
 60a:	80 e0       	ldi	r24, 0x00	; 0
 60c:	08 95       	ret
	
	if(enu_pin<PIN_0 || enu_pin>PIN_7){
		loc_ErrorStatus = Dio_PinError ;
 60e:	82 e0       	ldi	r24, 0x02	; 2
 610:	08 95       	ret
					}
					break;
		
			default:
			//error handling
					loc_ErrorStatus = Dio_PortError;
 612:	81 e0       	ldi	r24, 0x01	; 1
 614:	08 95       	ret
						CLR_BIT(DDRA,enu_pin);
					}else if ( enu_direction == OUTPUT){
						SET_BIT(DDRA,enu_pin);
					}else{
						// error handling
						loc_ErrorStatus = Dio_DirectionError;
 616:	84 e0       	ldi	r24, 0x04	; 4
 618:	08 95       	ret
						CLR_BIT(DDRB,enu_pin);
					}else if ( enu_direction == OUTPUT){
						SET_BIT(DDRB,enu_pin);
					}else{
						// error handling
						loc_ErrorStatus = Dio_DirectionError;
 61a:	84 e0       	ldi	r24, 0x04	; 4
 61c:	08 95       	ret
						CLR_BIT(DDRC,enu_pin);
					}else if ( enu_direction == OUTPUT){
						SET_BIT(DDRC,enu_pin);
					}else{
						// error handling
						loc_ErrorStatus = Dio_DirectionError;
 61e:	84 e0       	ldi	r24, 0x04	; 4
 620:	08 95       	ret
						CLR_BIT(DDRD,enu_pin);
					}else if ( enu_direction == OUTPUT){
						SET_BIT(DDRD,enu_pin);
					}else{
						// error handling
						loc_ErrorStatus = Dio_DirectionError;
 622:	84 e0       	ldi	r24, 0x04	; 4
		}
					}
	
	return loc_ErrorStatus ;

}
 624:	08 95       	ret

00000626 <dio_write>:


enu_dio_error_t dio_write(enu_ports_t enu_port, enu_pins_t enu_pin , enu_state_t enu_value){
	enu_dio_error_t loc_errorStatus = Dio_Ok ;
	
	if(enu_pin<PIN_0 || enu_pin>PIN_7){
 626:	68 30       	cpi	r22, 0x08	; 8
 628:	08 f0       	brcs	.+2      	; 0x62c <dio_write+0x6>
 62a:	80 c0       	rjmp	.+256    	; 0x72c <dio_write+0x106>
		loc_errorStatus = Dio_PinError ;
	}
	else{
		switch (enu_port)
 62c:	81 30       	cpi	r24, 0x01	; 1
 62e:	31 f1       	breq	.+76     	; 0x67c <dio_write+0x56>
 630:	38 f0       	brcs	.+14     	; 0x640 <dio_write+0x1a>
 632:	82 30       	cpi	r24, 0x02	; 2
 634:	09 f4       	brne	.+2      	; 0x638 <dio_write+0x12>
 636:	40 c0       	rjmp	.+128    	; 0x6b8 <dio_write+0x92>
 638:	83 30       	cpi	r24, 0x03	; 3
 63a:	09 f4       	brne	.+2      	; 0x63e <dio_write+0x18>
 63c:	5a c0       	rjmp	.+180    	; 0x6f2 <dio_write+0xcc>
 63e:	78 c0       	rjmp	.+240    	; 0x730 <dio_write+0x10a>
		{
			case PORT_A :
			
					if (enu_value == LOW)
 640:	41 11       	cpse	r20, r1
 642:	0d c0       	rjmp	.+26     	; 0x65e <dio_write+0x38>
					{
						CLR_BIT(PORTA,enu_pin);
 644:	2b b3       	in	r18, 0x1b	; 27
 646:	81 e0       	ldi	r24, 0x01	; 1
 648:	90 e0       	ldi	r25, 0x00	; 0
 64a:	02 c0       	rjmp	.+4      	; 0x650 <dio_write+0x2a>
 64c:	88 0f       	add	r24, r24
 64e:	99 1f       	adc	r25, r25
 650:	6a 95       	dec	r22
 652:	e2 f7       	brpl	.-8      	; 0x64c <dio_write+0x26>
 654:	80 95       	com	r24
 656:	82 23       	and	r24, r18
 658:	8b bb       	out	0x1b, r24	; 27

}


enu_dio_error_t dio_write(enu_ports_t enu_port, enu_pins_t enu_pin , enu_state_t enu_value){
	enu_dio_error_t loc_errorStatus = Dio_Ok ;
 65a:	80 e0       	ldi	r24, 0x00	; 0
 65c:	08 95       	ret
			
					if (enu_value == LOW)
					{
						CLR_BIT(PORTA,enu_pin);
			
					}else if ( enu_value == HIGH){
 65e:	41 30       	cpi	r20, 0x01	; 1
 660:	09 f0       	breq	.+2      	; 0x664 <dio_write+0x3e>
 662:	68 c0       	rjmp	.+208    	; 0x734 <dio_write+0x10e>
			
						SET_BIT(PORTA,enu_pin);
 664:	2b b3       	in	r18, 0x1b	; 27
 666:	81 e0       	ldi	r24, 0x01	; 1
 668:	90 e0       	ldi	r25, 0x00	; 0
 66a:	02 c0       	rjmp	.+4      	; 0x670 <dio_write+0x4a>
 66c:	88 0f       	add	r24, r24
 66e:	99 1f       	adc	r25, r25
 670:	6a 95       	dec	r22
 672:	e2 f7       	brpl	.-8      	; 0x66c <dio_write+0x46>
 674:	82 2b       	or	r24, r18
 676:	8b bb       	out	0x1b, r24	; 27

}


enu_dio_error_t dio_write(enu_ports_t enu_port, enu_pins_t enu_pin , enu_state_t enu_value){
	enu_dio_error_t loc_errorStatus = Dio_Ok ;
 678:	80 e0       	ldi	r24, 0x00	; 0
 67a:	08 95       	ret
						loc_errorStatus = Dio_ValueError ;
					}
					break;
		
			case PORT_B :
					if (enu_value == LOW)
 67c:	41 11       	cpse	r20, r1
 67e:	0d c0       	rjmp	.+26     	; 0x69a <dio_write+0x74>
					{
						CLR_BIT(PORTB,enu_pin);
 680:	28 b3       	in	r18, 0x18	; 24
 682:	81 e0       	ldi	r24, 0x01	; 1
 684:	90 e0       	ldi	r25, 0x00	; 0
 686:	02 c0       	rjmp	.+4      	; 0x68c <dio_write+0x66>
 688:	88 0f       	add	r24, r24
 68a:	99 1f       	adc	r25, r25
 68c:	6a 95       	dec	r22
 68e:	e2 f7       	brpl	.-8      	; 0x688 <dio_write+0x62>
 690:	80 95       	com	r24
 692:	82 23       	and	r24, r18
 694:	88 bb       	out	0x18, r24	; 24

}


enu_dio_error_t dio_write(enu_ports_t enu_port, enu_pins_t enu_pin , enu_state_t enu_value){
	enu_dio_error_t loc_errorStatus = Dio_Ok ;
 696:	80 e0       	ldi	r24, 0x00	; 0
 698:	08 95       	ret
			case PORT_B :
					if (enu_value == LOW)
					{
						CLR_BIT(PORTB,enu_pin);
			
					}else if ( enu_value == HIGH){
 69a:	41 30       	cpi	r20, 0x01	; 1
 69c:	09 f0       	breq	.+2      	; 0x6a0 <dio_write+0x7a>
 69e:	4c c0       	rjmp	.+152    	; 0x738 <dio_write+0x112>
			
						SET_BIT(PORTB,enu_pin);
 6a0:	28 b3       	in	r18, 0x18	; 24
 6a2:	81 e0       	ldi	r24, 0x01	; 1
 6a4:	90 e0       	ldi	r25, 0x00	; 0
 6a6:	02 c0       	rjmp	.+4      	; 0x6ac <dio_write+0x86>
 6a8:	88 0f       	add	r24, r24
 6aa:	99 1f       	adc	r25, r25
 6ac:	6a 95       	dec	r22
 6ae:	e2 f7       	brpl	.-8      	; 0x6a8 <dio_write+0x82>
 6b0:	82 2b       	or	r24, r18
 6b2:	88 bb       	out	0x18, r24	; 24

}


enu_dio_error_t dio_write(enu_ports_t enu_port, enu_pins_t enu_pin , enu_state_t enu_value){
	enu_dio_error_t loc_errorStatus = Dio_Ok ;
 6b4:	80 e0       	ldi	r24, 0x00	; 0
 6b6:	08 95       	ret
						loc_errorStatus = Dio_ValueError ;
					}
					break;
		
			case PORT_C :
					if (enu_value == LOW)
 6b8:	41 11       	cpse	r20, r1
 6ba:	0d c0       	rjmp	.+26     	; 0x6d6 <dio_write+0xb0>
					{
						CLR_BIT(PORTC,enu_pin);
 6bc:	25 b3       	in	r18, 0x15	; 21
 6be:	81 e0       	ldi	r24, 0x01	; 1
 6c0:	90 e0       	ldi	r25, 0x00	; 0
 6c2:	02 c0       	rjmp	.+4      	; 0x6c8 <dio_write+0xa2>
 6c4:	88 0f       	add	r24, r24
 6c6:	99 1f       	adc	r25, r25
 6c8:	6a 95       	dec	r22
 6ca:	e2 f7       	brpl	.-8      	; 0x6c4 <dio_write+0x9e>
 6cc:	80 95       	com	r24
 6ce:	82 23       	and	r24, r18
 6d0:	85 bb       	out	0x15, r24	; 21

}


enu_dio_error_t dio_write(enu_ports_t enu_port, enu_pins_t enu_pin , enu_state_t enu_value){
	enu_dio_error_t loc_errorStatus = Dio_Ok ;
 6d2:	80 e0       	ldi	r24, 0x00	; 0
 6d4:	08 95       	ret
			case PORT_C :
					if (enu_value == LOW)
					{
						CLR_BIT(PORTC,enu_pin);
			
					}else if ( enu_value == HIGH){
 6d6:	41 30       	cpi	r20, 0x01	; 1
 6d8:	89 f5       	brne	.+98     	; 0x73c <dio_write+0x116>
			
						SET_BIT(PORTC,enu_pin);
 6da:	25 b3       	in	r18, 0x15	; 21
 6dc:	81 e0       	ldi	r24, 0x01	; 1
 6de:	90 e0       	ldi	r25, 0x00	; 0
 6e0:	02 c0       	rjmp	.+4      	; 0x6e6 <dio_write+0xc0>
 6e2:	88 0f       	add	r24, r24
 6e4:	99 1f       	adc	r25, r25
 6e6:	6a 95       	dec	r22
 6e8:	e2 f7       	brpl	.-8      	; 0x6e2 <dio_write+0xbc>
 6ea:	82 2b       	or	r24, r18
 6ec:	85 bb       	out	0x15, r24	; 21

}


enu_dio_error_t dio_write(enu_ports_t enu_port, enu_pins_t enu_pin , enu_state_t enu_value){
	enu_dio_error_t loc_errorStatus = Dio_Ok ;
 6ee:	80 e0       	ldi	r24, 0x00	; 0
 6f0:	08 95       	ret
						loc_errorStatus = Dio_ValueError ;
					}
					break;
		
			case PORT_D :
					if (enu_value == LOW)
 6f2:	41 11       	cpse	r20, r1
 6f4:	0d c0       	rjmp	.+26     	; 0x710 <dio_write+0xea>
					{
						CLR_BIT(PORTD,enu_pin);
 6f6:	22 b3       	in	r18, 0x12	; 18
 6f8:	81 e0       	ldi	r24, 0x01	; 1
 6fa:	90 e0       	ldi	r25, 0x00	; 0
 6fc:	02 c0       	rjmp	.+4      	; 0x702 <dio_write+0xdc>
 6fe:	88 0f       	add	r24, r24
 700:	99 1f       	adc	r25, r25
 702:	6a 95       	dec	r22
 704:	e2 f7       	brpl	.-8      	; 0x6fe <dio_write+0xd8>
 706:	80 95       	com	r24
 708:	82 23       	and	r24, r18
 70a:	82 bb       	out	0x12, r24	; 18

}


enu_dio_error_t dio_write(enu_ports_t enu_port, enu_pins_t enu_pin , enu_state_t enu_value){
	enu_dio_error_t loc_errorStatus = Dio_Ok ;
 70c:	80 e0       	ldi	r24, 0x00	; 0
 70e:	08 95       	ret
			case PORT_D :
					if (enu_value == LOW)
					{
						CLR_BIT(PORTD,enu_pin);
			
					}else if ( enu_value == HIGH){
 710:	41 30       	cpi	r20, 0x01	; 1
 712:	b1 f4       	brne	.+44     	; 0x740 <dio_write+0x11a>
			
						SET_BIT(PORTD,enu_pin);
 714:	22 b3       	in	r18, 0x12	; 18
 716:	81 e0       	ldi	r24, 0x01	; 1
 718:	90 e0       	ldi	r25, 0x00	; 0
 71a:	02 c0       	rjmp	.+4      	; 0x720 <dio_write+0xfa>
 71c:	88 0f       	add	r24, r24
 71e:	99 1f       	adc	r25, r25
 720:	6a 95       	dec	r22
 722:	e2 f7       	brpl	.-8      	; 0x71c <dio_write+0xf6>
 724:	82 2b       	or	r24, r18
 726:	82 bb       	out	0x12, r24	; 18

}


enu_dio_error_t dio_write(enu_ports_t enu_port, enu_pins_t enu_pin , enu_state_t enu_value){
	enu_dio_error_t loc_errorStatus = Dio_Ok ;
 728:	80 e0       	ldi	r24, 0x00	; 0
 72a:	08 95       	ret
	
	if(enu_pin<PIN_0 || enu_pin>PIN_7){
		loc_errorStatus = Dio_PinError ;
 72c:	82 e0       	ldi	r24, 0x02	; 2
 72e:	08 95       	ret
					break;
		
		
			default:
			//error handling
				loc_errorStatus = Dio_PortError ;
 730:	81 e0       	ldi	r24, 0x01	; 1
 732:	08 95       	ret
					}else if ( enu_value == HIGH){
			
						SET_BIT(PORTA,enu_pin);
					}else{
						// error handling
						loc_errorStatus = Dio_ValueError ;
 734:	83 e0       	ldi	r24, 0x03	; 3
 736:	08 95       	ret
					}else if ( enu_value == HIGH){
			
						SET_BIT(PORTB,enu_pin);
					}else{
						// error handling
						loc_errorStatus = Dio_ValueError ;
 738:	83 e0       	ldi	r24, 0x03	; 3
 73a:	08 95       	ret
					}else if ( enu_value == HIGH){
			
						SET_BIT(PORTC,enu_pin);
					}else{
						// error handling
						loc_errorStatus = Dio_ValueError ;
 73c:	83 e0       	ldi	r24, 0x03	; 3
 73e:	08 95       	ret
			
						SET_BIT(PORTD,enu_pin);
			
					}else{
						// error handling
						loc_errorStatus = Dio_ValueError ;
 740:	83 e0       	ldi	r24, 0x03	; 3
				break;
		
				}
		}
	return loc_errorStatus;
	}
 742:	08 95       	ret

00000744 <ext_int_init>:

// CALLBACK FUNCTION TO INT_2
enu_ext_int_error_status_t int2_set_callback(void(*callback)(void)){

	int2_callback_function=callback;
}
 744:	85 b7       	in	r24, 0x35	; 53
 746:	82 60       	ori	r24, 0x02	; 2
 748:	85 bf       	out	0x35, r24	; 53
 74a:	85 b7       	in	r24, 0x35	; 53
 74c:	8e 7f       	andi	r24, 0xFE	; 254
 74e:	85 bf       	out	0x35, r24	; 53
 750:	8b b7       	in	r24, 0x3b	; 59
 752:	80 64       	ori	r24, 0x40	; 64
 754:	8b bf       	out	0x3b, r24	; 59
 756:	85 b7       	in	r24, 0x35	; 53
 758:	88 60       	ori	r24, 0x08	; 8
 75a:	85 bf       	out	0x35, r24	; 53
 75c:	85 b7       	in	r24, 0x35	; 53
 75e:	8b 7f       	andi	r24, 0xFB	; 251
 760:	85 bf       	out	0x35, r24	; 53
 762:	8b b7       	in	r24, 0x3b	; 59
 764:	80 68       	ori	r24, 0x80	; 128
 766:	8b bf       	out	0x3b, r24	; 59
 768:	80 91 68 00 	lds	r24, 0x0068	; 0x800068 <enu_ext_int_error_status>
 76c:	08 95       	ret

0000076e <int0_set_callback>:
 76e:	9c 01       	movw	r18, r24
 770:	80 91 68 00 	lds	r24, 0x0068	; 0x800068 <enu_ext_int_error_status>
 774:	83 30       	cpi	r24, 0x03	; 3
 776:	49 f4       	brne	.+18     	; 0x78a <int0_set_callback+0x1c>
 778:	21 15       	cp	r18, r1
 77a:	31 05       	cpc	r19, r1
 77c:	29 f0       	breq	.+10     	; 0x788 <int0_set_callback+0x1a>
 77e:	30 93 73 00 	sts	0x0073, r19	; 0x800073 <int0_callback_function+0x1>
 782:	20 93 72 00 	sts	0x0072, r18	; 0x800072 <int0_callback_function>
 786:	08 95       	ret
 788:	82 e0       	ldi	r24, 0x02	; 2
 78a:	08 95       	ret

0000078c <int1_set_callback>:
 78c:	90 93 71 00 	sts	0x0071, r25	; 0x800071 <int1_callback_function+0x1>
 790:	80 93 70 00 	sts	0x0070, r24	; 0x800070 <int1_callback_function>
 794:	08 95       	ret

00000796 <__vector_1>:
/***************************************************/
 
/**********  ISR OF INT_0  ************/

ISR(EXT_INT_0)
{
 796:	1f 92       	push	r1
 798:	0f 92       	push	r0
 79a:	0f b6       	in	r0, 0x3f	; 63
 79c:	0f 92       	push	r0
 79e:	11 24       	eor	r1, r1
 7a0:	2f 93       	push	r18
 7a2:	3f 93       	push	r19
 7a4:	4f 93       	push	r20
 7a6:	5f 93       	push	r21
 7a8:	6f 93       	push	r22
 7aa:	7f 93       	push	r23
 7ac:	8f 93       	push	r24
 7ae:	9f 93       	push	r25
 7b0:	af 93       	push	r26
 7b2:	bf 93       	push	r27
 7b4:	ef 93       	push	r30
 7b6:	ff 93       	push	r31
	int0_callback_function();	
 7b8:	e0 91 72 00 	lds	r30, 0x0072	; 0x800072 <int0_callback_function>
 7bc:	f0 91 73 00 	lds	r31, 0x0073	; 0x800073 <int0_callback_function+0x1>
 7c0:	09 95       	icall
}
 7c2:	ff 91       	pop	r31
 7c4:	ef 91       	pop	r30
 7c6:	bf 91       	pop	r27
 7c8:	af 91       	pop	r26
 7ca:	9f 91       	pop	r25
 7cc:	8f 91       	pop	r24
 7ce:	7f 91       	pop	r23
 7d0:	6f 91       	pop	r22
 7d2:	5f 91       	pop	r21
 7d4:	4f 91       	pop	r20
 7d6:	3f 91       	pop	r19
 7d8:	2f 91       	pop	r18
 7da:	0f 90       	pop	r0
 7dc:	0f be       	out	0x3f, r0	; 63
 7de:	0f 90       	pop	r0
 7e0:	1f 90       	pop	r1
 7e2:	18 95       	reti

000007e4 <__vector_2>:


/**********  ISR OF INT_1  ************/

ISR(EXT_INT_1)
{
 7e4:	1f 92       	push	r1
 7e6:	0f 92       	push	r0
 7e8:	0f b6       	in	r0, 0x3f	; 63
 7ea:	0f 92       	push	r0
 7ec:	11 24       	eor	r1, r1
 7ee:	2f 93       	push	r18
 7f0:	3f 93       	push	r19
 7f2:	4f 93       	push	r20
 7f4:	5f 93       	push	r21
 7f6:	6f 93       	push	r22
 7f8:	7f 93       	push	r23
 7fa:	8f 93       	push	r24
 7fc:	9f 93       	push	r25
 7fe:	af 93       	push	r26
 800:	bf 93       	push	r27
 802:	ef 93       	push	r30
 804:	ff 93       	push	r31
	int1_callback_function();
 806:	e0 91 70 00 	lds	r30, 0x0070	; 0x800070 <int1_callback_function>
 80a:	f0 91 71 00 	lds	r31, 0x0071	; 0x800071 <int1_callback_function+0x1>
 80e:	09 95       	icall
}
 810:	ff 91       	pop	r31
 812:	ef 91       	pop	r30
 814:	bf 91       	pop	r27
 816:	af 91       	pop	r26
 818:	9f 91       	pop	r25
 81a:	8f 91       	pop	r24
 81c:	7f 91       	pop	r23
 81e:	6f 91       	pop	r22
 820:	5f 91       	pop	r21
 822:	4f 91       	pop	r20
 824:	3f 91       	pop	r19
 826:	2f 91       	pop	r18
 828:	0f 90       	pop	r0
 82a:	0f be       	out	0x3f, r0	; 63
 82c:	0f 90       	pop	r0
 82e:	1f 90       	pop	r1
 830:	18 95       	reti

00000832 <__vector_3>:


/**********  ISR OF INT_2  ************/

ISR(EXT_INT_2)
{
 832:	1f 92       	push	r1
 834:	0f 92       	push	r0
 836:	0f b6       	in	r0, 0x3f	; 63
 838:	0f 92       	push	r0
 83a:	11 24       	eor	r1, r1
 83c:	2f 93       	push	r18
 83e:	3f 93       	push	r19
 840:	4f 93       	push	r20
 842:	5f 93       	push	r21
 844:	6f 93       	push	r22
 846:	7f 93       	push	r23
 848:	8f 93       	push	r24
 84a:	9f 93       	push	r25
 84c:	af 93       	push	r26
 84e:	bf 93       	push	r27
 850:	ef 93       	push	r30
 852:	ff 93       	push	r31
	int2_callback_function();
 854:	e0 91 6e 00 	lds	r30, 0x006E	; 0x80006e <int2_callback_function>
 858:	f0 91 6f 00 	lds	r31, 0x006F	; 0x80006f <int2_callback_function+0x1>
 85c:	09 95       	icall
 85e:	ff 91       	pop	r31
 860:	ef 91       	pop	r30
 862:	bf 91       	pop	r27
 864:	af 91       	pop	r26
 866:	9f 91       	pop	r25
 868:	8f 91       	pop	r24
 86a:	7f 91       	pop	r23
 86c:	6f 91       	pop	r22
 86e:	5f 91       	pop	r21
 870:	4f 91       	pop	r20
 872:	3f 91       	pop	r19
 874:	2f 91       	pop	r18
 876:	0f 90       	pop	r0
 878:	0f be       	out	0x3f, r0	; 63
 87a:	0f 90       	pop	r0
 87c:	1f 90       	pop	r1
 87e:	18 95       	reti

00000880 <timer_0_init>:

void timer_0_stop(void)
{
	CLR_BIT(TCCR0,CS00);
	CLR_BIT(TCCR0,CS01);
	CLR_BIT(TCCR0,CS02);
 880:	84 30       	cpi	r24, 0x04	; 4
 882:	40 f5       	brcc	.+80     	; 0x8d4 <timer_0_init+0x54>
 884:	81 30       	cpi	r24, 0x01	; 1
 886:	f1 f0       	breq	.+60     	; 0x8c4 <timer_0_init+0x44>
 888:	28 f0       	brcs	.+10     	; 0x894 <timer_0_init+0x14>
 88a:	82 30       	cpi	r24, 0x02	; 2
 88c:	99 f0       	breq	.+38     	; 0x8b4 <timer_0_init+0x34>
 88e:	83 30       	cpi	r24, 0x03	; 3
 890:	49 f0       	breq	.+18     	; 0x8a4 <timer_0_init+0x24>
 892:	22 c0       	rjmp	.+68     	; 0x8d8 <timer_0_init+0x58>
 894:	83 b7       	in	r24, 0x33	; 51
 896:	8f 7b       	andi	r24, 0xBF	; 191
 898:	83 bf       	out	0x33, r24	; 51
 89a:	83 b7       	in	r24, 0x33	; 51
 89c:	87 7f       	andi	r24, 0xF7	; 247
 89e:	83 bf       	out	0x33, r24	; 51
 8a0:	84 e0       	ldi	r24, 0x04	; 4
 8a2:	08 95       	ret
 8a4:	83 b7       	in	r24, 0x33	; 51
 8a6:	80 64       	ori	r24, 0x40	; 64
 8a8:	83 bf       	out	0x33, r24	; 51
 8aa:	83 b7       	in	r24, 0x33	; 51
 8ac:	87 7f       	andi	r24, 0xF7	; 247
 8ae:	83 bf       	out	0x33, r24	; 51
 8b0:	84 e0       	ldi	r24, 0x04	; 4
 8b2:	08 95       	ret
 8b4:	83 b7       	in	r24, 0x33	; 51
 8b6:	8f 7b       	andi	r24, 0xBF	; 191
 8b8:	83 bf       	out	0x33, r24	; 51
 8ba:	83 b7       	in	r24, 0x33	; 51
 8bc:	88 60       	ori	r24, 0x08	; 8
 8be:	83 bf       	out	0x33, r24	; 51
 8c0:	84 e0       	ldi	r24, 0x04	; 4
 8c2:	08 95       	ret
 8c4:	83 b7       	in	r24, 0x33	; 51
 8c6:	80 64       	ori	r24, 0x40	; 64
 8c8:	83 bf       	out	0x33, r24	; 51
 8ca:	83 b7       	in	r24, 0x33	; 51
 8cc:	88 60       	ori	r24, 0x08	; 8
 8ce:	83 bf       	out	0x33, r24	; 51
 8d0:	84 e0       	ldi	r24, 0x04	; 4
 8d2:	08 95       	ret
 8d4:	81 e0       	ldi	r24, 0x01	; 1
 8d6:	08 95       	ret
 8d8:	81 e0       	ldi	r24, 0x01	; 1
 8da:	08 95       	ret

000008dc <timer_0_start>:
 8dc:	85 30       	cpi	r24, 0x05	; 5
 8de:	08 f0       	brcs	.+2      	; 0x8e2 <timer_0_start+0x6>
 8e0:	44 c0       	rjmp	.+136    	; 0x96a <timer_0_start+0x8e>
 8e2:	82 30       	cpi	r24, 0x02	; 2
 8e4:	09 f1       	breq	.+66     	; 0x928 <timer_0_start+0x4c>
 8e6:	28 f4       	brcc	.+10     	; 0x8f2 <timer_0_start+0x16>
 8e8:	88 23       	and	r24, r24
 8ea:	41 f0       	breq	.+16     	; 0x8fc <timer_0_start+0x20>
 8ec:	81 30       	cpi	r24, 0x01	; 1
 8ee:	89 f0       	breq	.+34     	; 0x912 <timer_0_start+0x36>
 8f0:	3e c0       	rjmp	.+124    	; 0x96e <timer_0_start+0x92>
 8f2:	83 30       	cpi	r24, 0x03	; 3
 8f4:	21 f1       	breq	.+72     	; 0x93e <timer_0_start+0x62>
 8f6:	84 30       	cpi	r24, 0x04	; 4
 8f8:	69 f1       	breq	.+90     	; 0x954 <timer_0_start+0x78>
 8fa:	39 c0       	rjmp	.+114    	; 0x96e <timer_0_start+0x92>
 8fc:	83 b7       	in	r24, 0x33	; 51
 8fe:	81 60       	ori	r24, 0x01	; 1
 900:	83 bf       	out	0x33, r24	; 51
 902:	83 b7       	in	r24, 0x33	; 51
 904:	8d 7f       	andi	r24, 0xFD	; 253
 906:	83 bf       	out	0x33, r24	; 51
 908:	83 b7       	in	r24, 0x33	; 51
 90a:	8b 7f       	andi	r24, 0xFB	; 251
 90c:	83 bf       	out	0x33, r24	; 51
 90e:	84 e0       	ldi	r24, 0x04	; 4
 910:	08 95       	ret
 912:	83 b7       	in	r24, 0x33	; 51
 914:	82 60       	ori	r24, 0x02	; 2
 916:	83 bf       	out	0x33, r24	; 51
 918:	83 b7       	in	r24, 0x33	; 51
 91a:	8e 7f       	andi	r24, 0xFE	; 254
 91c:	83 bf       	out	0x33, r24	; 51
 91e:	83 b7       	in	r24, 0x33	; 51
 920:	8b 7f       	andi	r24, 0xFB	; 251
 922:	83 bf       	out	0x33, r24	; 51
 924:	84 e0       	ldi	r24, 0x04	; 4
 926:	08 95       	ret
 928:	83 b7       	in	r24, 0x33	; 51
 92a:	81 60       	ori	r24, 0x01	; 1
 92c:	83 bf       	out	0x33, r24	; 51
 92e:	83 b7       	in	r24, 0x33	; 51
 930:	82 60       	ori	r24, 0x02	; 2
 932:	83 bf       	out	0x33, r24	; 51
 934:	83 b7       	in	r24, 0x33	; 51
 936:	8b 7f       	andi	r24, 0xFB	; 251
 938:	83 bf       	out	0x33, r24	; 51
 93a:	84 e0       	ldi	r24, 0x04	; 4
 93c:	08 95       	ret
 93e:	83 b7       	in	r24, 0x33	; 51
 940:	84 60       	ori	r24, 0x04	; 4
 942:	83 bf       	out	0x33, r24	; 51
 944:	83 b7       	in	r24, 0x33	; 51
 946:	8d 7f       	andi	r24, 0xFD	; 253
 948:	83 bf       	out	0x33, r24	; 51
 94a:	83 b7       	in	r24, 0x33	; 51
 94c:	8e 7f       	andi	r24, 0xFE	; 254
 94e:	83 bf       	out	0x33, r24	; 51
 950:	84 e0       	ldi	r24, 0x04	; 4
 952:	08 95       	ret
 954:	83 b7       	in	r24, 0x33	; 51
 956:	81 60       	ori	r24, 0x01	; 1
 958:	83 bf       	out	0x33, r24	; 51
 95a:	83 b7       	in	r24, 0x33	; 51
 95c:	8d 7f       	andi	r24, 0xFD	; 253
 95e:	83 bf       	out	0x33, r24	; 51
 960:	83 b7       	in	r24, 0x33	; 51
 962:	84 60       	ori	r24, 0x04	; 4
 964:	83 bf       	out	0x33, r24	; 51
 966:	84 e0       	ldi	r24, 0x04	; 4
 968:	08 95       	ret
 96a:	80 e0       	ldi	r24, 0x00	; 0
 96c:	08 95       	ret
 96e:	80 e0       	ldi	r24, 0x00	; 0
 970:	08 95       	ret

00000972 <timer_0_initial_value>:
{
	enu_timer_error_status_t enu_timer_error_status = TIMER_OK;

	if(value < TIMR0_MAX_VALUE && value >= 0)
	{	
		TCNT0 = value ;
 972:	82 bf       	out	0x32, r24	; 50
	else
	{
		enu_timer_error_status = INVALID_VALUE;
	}
	return enu_timer_error_status ;
}
 974:	84 e0       	ldi	r24, 0x04	; 4
 976:	08 95       	ret

00000978 <timer_0_ovf_num>:


enu_timer_error_status_t timer_0_ovf_num(double a_overflow)
{
 978:	8f 92       	push	r8
 97a:	9f 92       	push	r9
 97c:	af 92       	push	r10
 97e:	bf 92       	push	r11
 980:	cf 92       	push	r12
 982:	df 92       	push	r13
 984:	ef 92       	push	r14
 986:	ff 92       	push	r15
 988:	4b 01       	movw	r8, r22
 98a:	5c 01       	movw	r10, r24
	enu_timer_error_status_t enu_timer_error_status = TIMER_OK;
	double num_ovf = 0;
	if (a_overflow > 0)
 98c:	20 e0       	ldi	r18, 0x00	; 0
 98e:	30 e0       	ldi	r19, 0x00	; 0
 990:	a9 01       	movw	r20, r18
 992:	0e 94 a8 06 	call	0xd50	; 0xd50 <__gesf2>
 996:	18 16       	cp	r1, r24
 998:	94 f0       	brlt	.+36     	; 0x9be <timer_0_ovf_num+0x46>
 99a:	1e c0       	rjmp	.+60     	; 0x9d8 <timer_0_ovf_num+0x60>
	{
		
		while(num_ovf < a_overflow){
			
			while(GET_BIT(TIFR,TOV0)==0);
 99c:	08 b6       	in	r0, 0x38	; 56
 99e:	00 fe       	sbrs	r0, 0
 9a0:	fd cf       	rjmp	.-6      	; 0x99c <timer_0_ovf_num+0x24>
			SET_BIT(TIFR,TOV0);
 9a2:	88 b7       	in	r24, 0x38	; 56
 9a4:	81 60       	ori	r24, 0x01	; 1
 9a6:	88 bf       	out	0x38, r24	; 56
			num_ovf++;
 9a8:	20 e0       	ldi	r18, 0x00	; 0
 9aa:	30 e0       	ldi	r19, 0x00	; 0
 9ac:	40 e8       	ldi	r20, 0x80	; 128
 9ae:	5f e3       	ldi	r21, 0x3F	; 63
 9b0:	c7 01       	movw	r24, r14
 9b2:	b6 01       	movw	r22, r12
 9b4:	0e 94 50 05 	call	0xaa0	; 0xaa0 <__addsf3>
 9b8:	6b 01       	movw	r12, r22
 9ba:	7c 01       	movw	r14, r24
 9bc:	03 c0       	rjmp	.+6      	; 0x9c4 <timer_0_ovf_num+0x4c>
 9be:	c1 2c       	mov	r12, r1
 9c0:	d1 2c       	mov	r13, r1
 9c2:	76 01       	movw	r14, r12
	enu_timer_error_status_t enu_timer_error_status = TIMER_OK;
	double num_ovf = 0;
	if (a_overflow > 0)
	{
		
		while(num_ovf < a_overflow){
 9c4:	a5 01       	movw	r20, r10
 9c6:	94 01       	movw	r18, r8
 9c8:	c7 01       	movw	r24, r14
 9ca:	b6 01       	movw	r22, r12
 9cc:	0e 94 bc 05 	call	0xb78	; 0xb78 <__cmpsf2>
 9d0:	88 23       	and	r24, r24
 9d2:	24 f3       	brlt	.-56     	; 0x99c <timer_0_ovf_num+0x24>
}


enu_timer_error_status_t timer_0_ovf_num(double a_overflow)
{
	enu_timer_error_status_t enu_timer_error_status = TIMER_OK;
 9d4:	84 e0       	ldi	r24, 0x04	; 4
 9d6:	2a c0       	rjmp	.+84     	; 0xa2c <timer_0_ovf_num+0xb4>
			SET_BIT(TIFR,TOV0);
			num_ovf++;
		}
		num_ovf = 0;
	}
	else if (a_overflow <= 0)
 9d8:	20 e0       	ldi	r18, 0x00	; 0
 9da:	30 e0       	ldi	r19, 0x00	; 0
 9dc:	a9 01       	movw	r20, r18
 9de:	c5 01       	movw	r24, r10
 9e0:	b4 01       	movw	r22, r8
 9e2:	0e 94 bc 05 	call	0xb78	; 0xb78 <__cmpsf2>
 9e6:	18 16       	cp	r1, r24
 9e8:	9c f4       	brge	.+38     	; 0xa10 <timer_0_ovf_num+0x98>
		num_ovf = 0;
	}
		
	else
	{
		enu_timer_error_status = INVALID_OVF;
 9ea:	82 e0       	ldi	r24, 0x02	; 2
 9ec:	1f c0       	rjmp	.+62     	; 0xa2c <timer_0_ovf_num+0xb4>
	else if (a_overflow <= 0)
	{
		a_overflow = 1 ;
		while(num_ovf < a_overflow){
			
			while(GET_BIT(TIFR,TOV0)==0);
 9ee:	08 b6       	in	r0, 0x38	; 56
 9f0:	00 fe       	sbrs	r0, 0
 9f2:	fd cf       	rjmp	.-6      	; 0x9ee <timer_0_ovf_num+0x76>
			SET_BIT(TIFR,TOV0);
 9f4:	88 b7       	in	r24, 0x38	; 56
 9f6:	81 60       	ori	r24, 0x01	; 1
 9f8:	88 bf       	out	0x38, r24	; 56
			num_ovf++;
 9fa:	20 e0       	ldi	r18, 0x00	; 0
 9fc:	30 e0       	ldi	r19, 0x00	; 0
 9fe:	40 e8       	ldi	r20, 0x80	; 128
 a00:	5f e3       	ldi	r21, 0x3F	; 63
 a02:	c7 01       	movw	r24, r14
 a04:	b6 01       	movw	r22, r12
 a06:	0e 94 50 05 	call	0xaa0	; 0xaa0 <__addsf3>
 a0a:	6b 01       	movw	r12, r22
 a0c:	7c 01       	movw	r14, r24
 a0e:	03 c0       	rjmp	.+6      	; 0xa16 <timer_0_ovf_num+0x9e>
 a10:	c1 2c       	mov	r12, r1
 a12:	d1 2c       	mov	r13, r1
 a14:	76 01       	movw	r14, r12
		num_ovf = 0;
	}
	else if (a_overflow <= 0)
	{
		a_overflow = 1 ;
		while(num_ovf < a_overflow){
 a16:	20 e0       	ldi	r18, 0x00	; 0
 a18:	30 e0       	ldi	r19, 0x00	; 0
 a1a:	40 e8       	ldi	r20, 0x80	; 128
 a1c:	5f e3       	ldi	r21, 0x3F	; 63
 a1e:	c7 01       	movw	r24, r14
 a20:	b6 01       	movw	r22, r12
 a22:	0e 94 bc 05 	call	0xb78	; 0xb78 <__cmpsf2>
 a26:	88 23       	and	r24, r24
 a28:	14 f3       	brlt	.-60     	; 0x9ee <timer_0_ovf_num+0x76>
}


enu_timer_error_status_t timer_0_ovf_num(double a_overflow)
{
	enu_timer_error_status_t enu_timer_error_status = TIMER_OK;
 a2a:	84 e0       	ldi	r24, 0x04	; 4
	{
		enu_timer_error_status = INVALID_OVF;
	}
	
	return enu_timer_error_status;
}
 a2c:	ff 90       	pop	r15
 a2e:	ef 90       	pop	r14
 a30:	df 90       	pop	r13
 a32:	cf 90       	pop	r12
 a34:	bf 90       	pop	r11
 a36:	af 90       	pop	r10
 a38:	9f 90       	pop	r9
 a3a:	8f 90       	pop	r8
 a3c:	08 95       	ret

00000a3e <timer_0_delay_ms>:

void timer_0_delay_ms(double a_time_ms)
{
	 g_tick = a_time_ms/1000 ;
 a3e:	20 e0       	ldi	r18, 0x00	; 0
 a40:	30 e0       	ldi	r19, 0x00	; 0
 a42:	4a e7       	ldi	r20, 0x7A	; 122
 a44:	54 e4       	ldi	r21, 0x44	; 68
 a46:	0e 94 c1 05 	call	0xb82	; 0xb82 <__divsf3>
 a4a:	60 93 78 00 	sts	0x0078, r22	; 0x800078 <g_tick>
 a4e:	70 93 79 00 	sts	0x0079, r23	; 0x800079 <g_tick+0x1>
 a52:	80 93 7a 00 	sts	0x007A, r24	; 0x80007a <g_tick+0x2>
 a56:	90 93 7b 00 	sts	0x007B, r25	; 0x80007b <g_tick+0x3>
	g_ovf_num =  (g_tick / 0.000256) ;
 a5a:	2d eb       	ldi	r18, 0xBD	; 189
 a5c:	37 e3       	ldi	r19, 0x37	; 55
 a5e:	46 e8       	ldi	r20, 0x86	; 134
 a60:	59 e3       	ldi	r21, 0x39	; 57
 a62:	0e 94 c1 05 	call	0xb82	; 0xb82 <__divsf3>
 a66:	60 93 74 00 	sts	0x0074, r22	; 0x800074 <g_ovf_num>
 a6a:	70 93 75 00 	sts	0x0075, r23	; 0x800075 <g_ovf_num+0x1>
 a6e:	80 93 76 00 	sts	0x0076, r24	; 0x800076 <g_ovf_num+0x2>
 a72:	90 93 77 00 	sts	0x0077, r25	; 0x800077 <g_ovf_num+0x3>
	timer_0_init(NORMAL_MODE);
 a76:	80 e0       	ldi	r24, 0x00	; 0
 a78:	0e 94 40 04 	call	0x880	; 0x880 <timer_0_init>
	timer_0_initial_value(0);
 a7c:	80 e0       	ldi	r24, 0x00	; 0
 a7e:	0e 94 b9 04 	call	0x972	; 0x972 <timer_0_initial_value>
	timer_0_start(PRECALER_1);
 a82:	80 e0       	ldi	r24, 0x00	; 0
 a84:	0e 94 6e 04 	call	0x8dc	; 0x8dc <timer_0_start>
	timer_0_ovf_num(g_ovf_num);	
 a88:	60 91 74 00 	lds	r22, 0x0074	; 0x800074 <g_ovf_num>
 a8c:	70 91 75 00 	lds	r23, 0x0075	; 0x800075 <g_ovf_num+0x1>
 a90:	80 91 76 00 	lds	r24, 0x0076	; 0x800076 <g_ovf_num+0x2>
 a94:	90 91 77 00 	lds	r25, 0x0077	; 0x800077 <g_ovf_num+0x3>
 a98:	0e 94 bc 04 	call	0x978	; 0x978 <timer_0_ovf_num>
 a9c:	08 95       	ret

00000a9e <__subsf3>:
 a9e:	50 58       	subi	r21, 0x80	; 128

00000aa0 <__addsf3>:
 aa0:	bb 27       	eor	r27, r27
 aa2:	aa 27       	eor	r26, r26
 aa4:	0e 94 67 05 	call	0xace	; 0xace <__addsf3x>
 aa8:	0c 94 6e 06 	jmp	0xcdc	; 0xcdc <__fp_round>
 aac:	0e 94 60 06 	call	0xcc0	; 0xcc0 <__fp_pscA>
 ab0:	38 f0       	brcs	.+14     	; 0xac0 <__addsf3+0x20>
 ab2:	0e 94 67 06 	call	0xcce	; 0xcce <__fp_pscB>
 ab6:	20 f0       	brcs	.+8      	; 0xac0 <__addsf3+0x20>
 ab8:	39 f4       	brne	.+14     	; 0xac8 <__addsf3+0x28>
 aba:	9f 3f       	cpi	r25, 0xFF	; 255
 abc:	19 f4       	brne	.+6      	; 0xac4 <__addsf3+0x24>
 abe:	26 f4       	brtc	.+8      	; 0xac8 <__addsf3+0x28>
 ac0:	0c 94 5d 06 	jmp	0xcba	; 0xcba <__fp_nan>
 ac4:	0e f4       	brtc	.+2      	; 0xac8 <__addsf3+0x28>
 ac6:	e0 95       	com	r30
 ac8:	e7 fb       	bst	r30, 7
 aca:	0c 94 57 06 	jmp	0xcae	; 0xcae <__fp_inf>

00000ace <__addsf3x>:
 ace:	e9 2f       	mov	r30, r25
 ad0:	0e 94 7f 06 	call	0xcfe	; 0xcfe <__fp_split3>
 ad4:	58 f3       	brcs	.-42     	; 0xaac <__addsf3+0xc>
 ad6:	ba 17       	cp	r27, r26
 ad8:	62 07       	cpc	r22, r18
 ada:	73 07       	cpc	r23, r19
 adc:	84 07       	cpc	r24, r20
 ade:	95 07       	cpc	r25, r21
 ae0:	20 f0       	brcs	.+8      	; 0xaea <__addsf3x+0x1c>
 ae2:	79 f4       	brne	.+30     	; 0xb02 <__addsf3x+0x34>
 ae4:	a6 f5       	brtc	.+104    	; 0xb4e <__addsf3x+0x80>
 ae6:	0c 94 a1 06 	jmp	0xd42	; 0xd42 <__fp_zero>
 aea:	0e f4       	brtc	.+2      	; 0xaee <__addsf3x+0x20>
 aec:	e0 95       	com	r30
 aee:	0b 2e       	mov	r0, r27
 af0:	ba 2f       	mov	r27, r26
 af2:	a0 2d       	mov	r26, r0
 af4:	0b 01       	movw	r0, r22
 af6:	b9 01       	movw	r22, r18
 af8:	90 01       	movw	r18, r0
 afa:	0c 01       	movw	r0, r24
 afc:	ca 01       	movw	r24, r20
 afe:	a0 01       	movw	r20, r0
 b00:	11 24       	eor	r1, r1
 b02:	ff 27       	eor	r31, r31
 b04:	59 1b       	sub	r21, r25
 b06:	99 f0       	breq	.+38     	; 0xb2e <__addsf3x+0x60>
 b08:	59 3f       	cpi	r21, 0xF9	; 249
 b0a:	50 f4       	brcc	.+20     	; 0xb20 <__addsf3x+0x52>
 b0c:	50 3e       	cpi	r21, 0xE0	; 224
 b0e:	68 f1       	brcs	.+90     	; 0xb6a <__addsf3x+0x9c>
 b10:	1a 16       	cp	r1, r26
 b12:	f0 40       	sbci	r31, 0x00	; 0
 b14:	a2 2f       	mov	r26, r18
 b16:	23 2f       	mov	r18, r19
 b18:	34 2f       	mov	r19, r20
 b1a:	44 27       	eor	r20, r20
 b1c:	58 5f       	subi	r21, 0xF8	; 248
 b1e:	f3 cf       	rjmp	.-26     	; 0xb06 <__addsf3x+0x38>
 b20:	46 95       	lsr	r20
 b22:	37 95       	ror	r19
 b24:	27 95       	ror	r18
 b26:	a7 95       	ror	r26
 b28:	f0 40       	sbci	r31, 0x00	; 0
 b2a:	53 95       	inc	r21
 b2c:	c9 f7       	brne	.-14     	; 0xb20 <__addsf3x+0x52>
 b2e:	7e f4       	brtc	.+30     	; 0xb4e <__addsf3x+0x80>
 b30:	1f 16       	cp	r1, r31
 b32:	ba 0b       	sbc	r27, r26
 b34:	62 0b       	sbc	r22, r18
 b36:	73 0b       	sbc	r23, r19
 b38:	84 0b       	sbc	r24, r20
 b3a:	ba f0       	brmi	.+46     	; 0xb6a <__addsf3x+0x9c>
 b3c:	91 50       	subi	r25, 0x01	; 1
 b3e:	a1 f0       	breq	.+40     	; 0xb68 <__addsf3x+0x9a>
 b40:	ff 0f       	add	r31, r31
 b42:	bb 1f       	adc	r27, r27
 b44:	66 1f       	adc	r22, r22
 b46:	77 1f       	adc	r23, r23
 b48:	88 1f       	adc	r24, r24
 b4a:	c2 f7       	brpl	.-16     	; 0xb3c <__addsf3x+0x6e>
 b4c:	0e c0       	rjmp	.+28     	; 0xb6a <__addsf3x+0x9c>
 b4e:	ba 0f       	add	r27, r26
 b50:	62 1f       	adc	r22, r18
 b52:	73 1f       	adc	r23, r19
 b54:	84 1f       	adc	r24, r20
 b56:	48 f4       	brcc	.+18     	; 0xb6a <__addsf3x+0x9c>
 b58:	87 95       	ror	r24
 b5a:	77 95       	ror	r23
 b5c:	67 95       	ror	r22
 b5e:	b7 95       	ror	r27
 b60:	f7 95       	ror	r31
 b62:	9e 3f       	cpi	r25, 0xFE	; 254
 b64:	08 f0       	brcs	.+2      	; 0xb68 <__addsf3x+0x9a>
 b66:	b0 cf       	rjmp	.-160    	; 0xac8 <__addsf3+0x28>
 b68:	93 95       	inc	r25
 b6a:	88 0f       	add	r24, r24
 b6c:	08 f0       	brcs	.+2      	; 0xb70 <__addsf3x+0xa2>
 b6e:	99 27       	eor	r25, r25
 b70:	ee 0f       	add	r30, r30
 b72:	97 95       	ror	r25
 b74:	87 95       	ror	r24
 b76:	08 95       	ret

00000b78 <__cmpsf2>:
 b78:	0e 94 33 06 	call	0xc66	; 0xc66 <__fp_cmp>
 b7c:	08 f4       	brcc	.+2      	; 0xb80 <__cmpsf2+0x8>
 b7e:	81 e0       	ldi	r24, 0x01	; 1
 b80:	08 95       	ret

00000b82 <__divsf3>:
 b82:	0e 94 d5 05 	call	0xbaa	; 0xbaa <__divsf3x>
 b86:	0c 94 6e 06 	jmp	0xcdc	; 0xcdc <__fp_round>
 b8a:	0e 94 67 06 	call	0xcce	; 0xcce <__fp_pscB>
 b8e:	58 f0       	brcs	.+22     	; 0xba6 <__divsf3+0x24>
 b90:	0e 94 60 06 	call	0xcc0	; 0xcc0 <__fp_pscA>
 b94:	40 f0       	brcs	.+16     	; 0xba6 <__divsf3+0x24>
 b96:	29 f4       	brne	.+10     	; 0xba2 <__divsf3+0x20>
 b98:	5f 3f       	cpi	r21, 0xFF	; 255
 b9a:	29 f0       	breq	.+10     	; 0xba6 <__divsf3+0x24>
 b9c:	0c 94 57 06 	jmp	0xcae	; 0xcae <__fp_inf>
 ba0:	51 11       	cpse	r21, r1
 ba2:	0c 94 a2 06 	jmp	0xd44	; 0xd44 <__fp_szero>
 ba6:	0c 94 5d 06 	jmp	0xcba	; 0xcba <__fp_nan>

00000baa <__divsf3x>:
 baa:	0e 94 7f 06 	call	0xcfe	; 0xcfe <__fp_split3>
 bae:	68 f3       	brcs	.-38     	; 0xb8a <__divsf3+0x8>

00000bb0 <__divsf3_pse>:
 bb0:	99 23       	and	r25, r25
 bb2:	b1 f3       	breq	.-20     	; 0xba0 <__divsf3+0x1e>
 bb4:	55 23       	and	r21, r21
 bb6:	91 f3       	breq	.-28     	; 0xb9c <__divsf3+0x1a>
 bb8:	95 1b       	sub	r25, r21
 bba:	55 0b       	sbc	r21, r21
 bbc:	bb 27       	eor	r27, r27
 bbe:	aa 27       	eor	r26, r26
 bc0:	62 17       	cp	r22, r18
 bc2:	73 07       	cpc	r23, r19
 bc4:	84 07       	cpc	r24, r20
 bc6:	38 f0       	brcs	.+14     	; 0xbd6 <__divsf3_pse+0x26>
 bc8:	9f 5f       	subi	r25, 0xFF	; 255
 bca:	5f 4f       	sbci	r21, 0xFF	; 255
 bcc:	22 0f       	add	r18, r18
 bce:	33 1f       	adc	r19, r19
 bd0:	44 1f       	adc	r20, r20
 bd2:	aa 1f       	adc	r26, r26
 bd4:	a9 f3       	breq	.-22     	; 0xbc0 <__divsf3_pse+0x10>
 bd6:	35 d0       	rcall	.+106    	; 0xc42 <__divsf3_pse+0x92>
 bd8:	0e 2e       	mov	r0, r30
 bda:	3a f0       	brmi	.+14     	; 0xbea <__divsf3_pse+0x3a>
 bdc:	e0 e8       	ldi	r30, 0x80	; 128
 bde:	32 d0       	rcall	.+100    	; 0xc44 <__divsf3_pse+0x94>
 be0:	91 50       	subi	r25, 0x01	; 1
 be2:	50 40       	sbci	r21, 0x00	; 0
 be4:	e6 95       	lsr	r30
 be6:	00 1c       	adc	r0, r0
 be8:	ca f7       	brpl	.-14     	; 0xbdc <__divsf3_pse+0x2c>
 bea:	2b d0       	rcall	.+86     	; 0xc42 <__divsf3_pse+0x92>
 bec:	fe 2f       	mov	r31, r30
 bee:	29 d0       	rcall	.+82     	; 0xc42 <__divsf3_pse+0x92>
 bf0:	66 0f       	add	r22, r22
 bf2:	77 1f       	adc	r23, r23
 bf4:	88 1f       	adc	r24, r24
 bf6:	bb 1f       	adc	r27, r27
 bf8:	26 17       	cp	r18, r22
 bfa:	37 07       	cpc	r19, r23
 bfc:	48 07       	cpc	r20, r24
 bfe:	ab 07       	cpc	r26, r27
 c00:	b0 e8       	ldi	r27, 0x80	; 128
 c02:	09 f0       	breq	.+2      	; 0xc06 <__divsf3_pse+0x56>
 c04:	bb 0b       	sbc	r27, r27
 c06:	80 2d       	mov	r24, r0
 c08:	bf 01       	movw	r22, r30
 c0a:	ff 27       	eor	r31, r31
 c0c:	93 58       	subi	r25, 0x83	; 131
 c0e:	5f 4f       	sbci	r21, 0xFF	; 255
 c10:	3a f0       	brmi	.+14     	; 0xc20 <__divsf3_pse+0x70>
 c12:	9e 3f       	cpi	r25, 0xFE	; 254
 c14:	51 05       	cpc	r21, r1
 c16:	78 f0       	brcs	.+30     	; 0xc36 <__divsf3_pse+0x86>
 c18:	0c 94 57 06 	jmp	0xcae	; 0xcae <__fp_inf>
 c1c:	0c 94 a2 06 	jmp	0xd44	; 0xd44 <__fp_szero>
 c20:	5f 3f       	cpi	r21, 0xFF	; 255
 c22:	e4 f3       	brlt	.-8      	; 0xc1c <__divsf3_pse+0x6c>
 c24:	98 3e       	cpi	r25, 0xE8	; 232
 c26:	d4 f3       	brlt	.-12     	; 0xc1c <__divsf3_pse+0x6c>
 c28:	86 95       	lsr	r24
 c2a:	77 95       	ror	r23
 c2c:	67 95       	ror	r22
 c2e:	b7 95       	ror	r27
 c30:	f7 95       	ror	r31
 c32:	9f 5f       	subi	r25, 0xFF	; 255
 c34:	c9 f7       	brne	.-14     	; 0xc28 <__divsf3_pse+0x78>
 c36:	88 0f       	add	r24, r24
 c38:	91 1d       	adc	r25, r1
 c3a:	96 95       	lsr	r25
 c3c:	87 95       	ror	r24
 c3e:	97 f9       	bld	r25, 7
 c40:	08 95       	ret
 c42:	e1 e0       	ldi	r30, 0x01	; 1
 c44:	66 0f       	add	r22, r22
 c46:	77 1f       	adc	r23, r23
 c48:	88 1f       	adc	r24, r24
 c4a:	bb 1f       	adc	r27, r27
 c4c:	62 17       	cp	r22, r18
 c4e:	73 07       	cpc	r23, r19
 c50:	84 07       	cpc	r24, r20
 c52:	ba 07       	cpc	r27, r26
 c54:	20 f0       	brcs	.+8      	; 0xc5e <__divsf3_pse+0xae>
 c56:	62 1b       	sub	r22, r18
 c58:	73 0b       	sbc	r23, r19
 c5a:	84 0b       	sbc	r24, r20
 c5c:	ba 0b       	sbc	r27, r26
 c5e:	ee 1f       	adc	r30, r30
 c60:	88 f7       	brcc	.-30     	; 0xc44 <__divsf3_pse+0x94>
 c62:	e0 95       	com	r30
 c64:	08 95       	ret

00000c66 <__fp_cmp>:
 c66:	99 0f       	add	r25, r25
 c68:	00 08       	sbc	r0, r0
 c6a:	55 0f       	add	r21, r21
 c6c:	aa 0b       	sbc	r26, r26
 c6e:	e0 e8       	ldi	r30, 0x80	; 128
 c70:	fe ef       	ldi	r31, 0xFE	; 254
 c72:	16 16       	cp	r1, r22
 c74:	17 06       	cpc	r1, r23
 c76:	e8 07       	cpc	r30, r24
 c78:	f9 07       	cpc	r31, r25
 c7a:	c0 f0       	brcs	.+48     	; 0xcac <__fp_cmp+0x46>
 c7c:	12 16       	cp	r1, r18
 c7e:	13 06       	cpc	r1, r19
 c80:	e4 07       	cpc	r30, r20
 c82:	f5 07       	cpc	r31, r21
 c84:	98 f0       	brcs	.+38     	; 0xcac <__fp_cmp+0x46>
 c86:	62 1b       	sub	r22, r18
 c88:	73 0b       	sbc	r23, r19
 c8a:	84 0b       	sbc	r24, r20
 c8c:	95 0b       	sbc	r25, r21
 c8e:	39 f4       	brne	.+14     	; 0xc9e <__fp_cmp+0x38>
 c90:	0a 26       	eor	r0, r26
 c92:	61 f0       	breq	.+24     	; 0xcac <__fp_cmp+0x46>
 c94:	23 2b       	or	r18, r19
 c96:	24 2b       	or	r18, r20
 c98:	25 2b       	or	r18, r21
 c9a:	21 f4       	brne	.+8      	; 0xca4 <__fp_cmp+0x3e>
 c9c:	08 95       	ret
 c9e:	0a 26       	eor	r0, r26
 ca0:	09 f4       	brne	.+2      	; 0xca4 <__fp_cmp+0x3e>
 ca2:	a1 40       	sbci	r26, 0x01	; 1
 ca4:	a6 95       	lsr	r26
 ca6:	8f ef       	ldi	r24, 0xFF	; 255
 ca8:	81 1d       	adc	r24, r1
 caa:	81 1d       	adc	r24, r1
 cac:	08 95       	ret

00000cae <__fp_inf>:
 cae:	97 f9       	bld	r25, 7
 cb0:	9f 67       	ori	r25, 0x7F	; 127
 cb2:	80 e8       	ldi	r24, 0x80	; 128
 cb4:	70 e0       	ldi	r23, 0x00	; 0
 cb6:	60 e0       	ldi	r22, 0x00	; 0
 cb8:	08 95       	ret

00000cba <__fp_nan>:
 cba:	9f ef       	ldi	r25, 0xFF	; 255
 cbc:	80 ec       	ldi	r24, 0xC0	; 192
 cbe:	08 95       	ret

00000cc0 <__fp_pscA>:
 cc0:	00 24       	eor	r0, r0
 cc2:	0a 94       	dec	r0
 cc4:	16 16       	cp	r1, r22
 cc6:	17 06       	cpc	r1, r23
 cc8:	18 06       	cpc	r1, r24
 cca:	09 06       	cpc	r0, r25
 ccc:	08 95       	ret

00000cce <__fp_pscB>:
 cce:	00 24       	eor	r0, r0
 cd0:	0a 94       	dec	r0
 cd2:	12 16       	cp	r1, r18
 cd4:	13 06       	cpc	r1, r19
 cd6:	14 06       	cpc	r1, r20
 cd8:	05 06       	cpc	r0, r21
 cda:	08 95       	ret

00000cdc <__fp_round>:
 cdc:	09 2e       	mov	r0, r25
 cde:	03 94       	inc	r0
 ce0:	00 0c       	add	r0, r0
 ce2:	11 f4       	brne	.+4      	; 0xce8 <__fp_round+0xc>
 ce4:	88 23       	and	r24, r24
 ce6:	52 f0       	brmi	.+20     	; 0xcfc <__fp_round+0x20>
 ce8:	bb 0f       	add	r27, r27
 cea:	40 f4       	brcc	.+16     	; 0xcfc <__fp_round+0x20>
 cec:	bf 2b       	or	r27, r31
 cee:	11 f4       	brne	.+4      	; 0xcf4 <__fp_round+0x18>
 cf0:	60 ff       	sbrs	r22, 0
 cf2:	04 c0       	rjmp	.+8      	; 0xcfc <__fp_round+0x20>
 cf4:	6f 5f       	subi	r22, 0xFF	; 255
 cf6:	7f 4f       	sbci	r23, 0xFF	; 255
 cf8:	8f 4f       	sbci	r24, 0xFF	; 255
 cfa:	9f 4f       	sbci	r25, 0xFF	; 255
 cfc:	08 95       	ret

00000cfe <__fp_split3>:
 cfe:	57 fd       	sbrc	r21, 7
 d00:	90 58       	subi	r25, 0x80	; 128
 d02:	44 0f       	add	r20, r20
 d04:	55 1f       	adc	r21, r21
 d06:	59 f0       	breq	.+22     	; 0xd1e <__fp_splitA+0x10>
 d08:	5f 3f       	cpi	r21, 0xFF	; 255
 d0a:	71 f0       	breq	.+28     	; 0xd28 <__fp_splitA+0x1a>
 d0c:	47 95       	ror	r20

00000d0e <__fp_splitA>:
 d0e:	88 0f       	add	r24, r24
 d10:	97 fb       	bst	r25, 7
 d12:	99 1f       	adc	r25, r25
 d14:	61 f0       	breq	.+24     	; 0xd2e <__fp_splitA+0x20>
 d16:	9f 3f       	cpi	r25, 0xFF	; 255
 d18:	79 f0       	breq	.+30     	; 0xd38 <__fp_splitA+0x2a>
 d1a:	87 95       	ror	r24
 d1c:	08 95       	ret
 d1e:	12 16       	cp	r1, r18
 d20:	13 06       	cpc	r1, r19
 d22:	14 06       	cpc	r1, r20
 d24:	55 1f       	adc	r21, r21
 d26:	f2 cf       	rjmp	.-28     	; 0xd0c <__fp_split3+0xe>
 d28:	46 95       	lsr	r20
 d2a:	f1 df       	rcall	.-30     	; 0xd0e <__fp_splitA>
 d2c:	08 c0       	rjmp	.+16     	; 0xd3e <__fp_splitA+0x30>
 d2e:	16 16       	cp	r1, r22
 d30:	17 06       	cpc	r1, r23
 d32:	18 06       	cpc	r1, r24
 d34:	99 1f       	adc	r25, r25
 d36:	f1 cf       	rjmp	.-30     	; 0xd1a <__fp_splitA+0xc>
 d38:	86 95       	lsr	r24
 d3a:	71 05       	cpc	r23, r1
 d3c:	61 05       	cpc	r22, r1
 d3e:	08 94       	sec
 d40:	08 95       	ret

00000d42 <__fp_zero>:
 d42:	e8 94       	clt

00000d44 <__fp_szero>:
 d44:	bb 27       	eor	r27, r27
 d46:	66 27       	eor	r22, r22
 d48:	77 27       	eor	r23, r23
 d4a:	cb 01       	movw	r24, r22
 d4c:	97 f9       	bld	r25, 7
 d4e:	08 95       	ret

00000d50 <__gesf2>:
 d50:	0e 94 33 06 	call	0xc66	; 0xc66 <__fp_cmp>
 d54:	08 f4       	brcc	.+2      	; 0xd58 <__gesf2+0x8>
 d56:	8f ef       	ldi	r24, 0xFF	; 255
 d58:	08 95       	ret

00000d5a <_exit>:
 d5a:	f8 94       	cli

00000d5c <__stop_program>:
 d5c:	ff cf       	rjmp	.-2      	; 0xd5c <__stop_program>
